ARM GAS  C:\Users\Bryce\AppData\Local\Temp\ccLuOGF3.s 			page 1


   1              		.syntax unified
   2              		.cpu cortex-m4
   3              		.eabi_attribute 27, 1
   4              		.fpu fpv4-sp-d16
   5              		.eabi_attribute 20, 1
   6              		.eabi_attribute 21, 1
   7              		.eabi_attribute 23, 3
   8              		.eabi_attribute 24, 1
   9              		.eabi_attribute 25, 1
  10              		.eabi_attribute 26, 1
  11              		.eabi_attribute 30, 1
  12              		.eabi_attribute 34, 1
  13              		.eabi_attribute 18, 4
  14              		.thumb
  15              		.syntax unified
  16              		.file	"CapSense_1_Structure.c"
  17              		.text
  18              	.Ltext0:
  19              		.cfi_sections	.debug_frame
  20              		.section	.text.DsParseParamId,"ax",%progbits
  21              		.align	2
  22              		.thumb
  23              		.thumb_func
  24              		.type	DsParseParamId, %function
  25              	DsParseParamId:
  26              	.LFB133:
  27              		.file 1 "Generated_Source\\PSoC6\\CapSense_1_Structure.c"
   1:Generated_Source\PSoC6/CapSense_1_Structure.c **** /***************************************************************************//**
   2:Generated_Source\PSoC6/CapSense_1_Structure.c **** * \file CapSense_1_Structure.c
   3:Generated_Source\PSoC6/CapSense_1_Structure.c **** * \version 3.0
   4:Generated_Source\PSoC6/CapSense_1_Structure.c **** *
   5:Generated_Source\PSoC6/CapSense_1_Structure.c **** * \brief
   6:Generated_Source\PSoC6/CapSense_1_Structure.c **** *   This file defines the data structure global variables and provides implementation
   7:Generated_Source\PSoC6/CapSense_1_Structure.c **** *   for the high-level and low-level APIs of the Data Structure module.
   8:Generated_Source\PSoC6/CapSense_1_Structure.c **** *
   9:Generated_Source\PSoC6/CapSense_1_Structure.c **** * \see CapSense_1 v3.0 Datasheet
  10:Generated_Source\PSoC6/CapSense_1_Structure.c **** *
  11:Generated_Source\PSoC6/CapSense_1_Structure.c **** *//*****************************************************************************
  12:Generated_Source\PSoC6/CapSense_1_Structure.c **** * Copyright (2016-2017), Cypress Semiconductor Corporation.
  13:Generated_Source\PSoC6/CapSense_1_Structure.c **** ********************************************************************************
  14:Generated_Source\PSoC6/CapSense_1_Structure.c **** * This software is owned by Cypress Semiconductor Corporation (Cypress) and is
  15:Generated_Source\PSoC6/CapSense_1_Structure.c **** * protected by and subject to worldwide patent protection (United States and
  16:Generated_Source\PSoC6/CapSense_1_Structure.c **** * foreign), United States copyright laws and international treaty provisions.
  17:Generated_Source\PSoC6/CapSense_1_Structure.c **** * Cypress hereby grants to licensee a personal, non-exclusive, non-transferable
  18:Generated_Source\PSoC6/CapSense_1_Structure.c **** * license to copy, use, modify, create derivative works of, and compile the
  19:Generated_Source\PSoC6/CapSense_1_Structure.c **** * Cypress Source Code and derivative works for the sole purpose of creating
  20:Generated_Source\PSoC6/CapSense_1_Structure.c **** * custom software in support of licensee product to be used only in conjunction
  21:Generated_Source\PSoC6/CapSense_1_Structure.c **** * with a Cypress integrated circuit as specified in the applicable agreement.
  22:Generated_Source\PSoC6/CapSense_1_Structure.c **** * Any reproduction, modification, translation, compilation, or representation of
  23:Generated_Source\PSoC6/CapSense_1_Structure.c **** * this software except as specified above is prohibited without the express
  24:Generated_Source\PSoC6/CapSense_1_Structure.c **** * written permission of Cypress.
  25:Generated_Source\PSoC6/CapSense_1_Structure.c **** *
  26:Generated_Source\PSoC6/CapSense_1_Structure.c **** * Disclaimer: CYPRESS MAKES NO WARRANTY OF ANY KIND, EXPRESS OR IMPLIED, WITH
  27:Generated_Source\PSoC6/CapSense_1_Structure.c **** * REGARD TO THIS MATERIAL, INCLUDING, BUT NOT LIMITED TO, THE IMPLIED
  28:Generated_Source\PSoC6/CapSense_1_Structure.c **** * WARRANTIES OF MERCHANTABILITY AND FITNESS FOR A PARTICULAR PURPOSE.
  29:Generated_Source\PSoC6/CapSense_1_Structure.c **** * Cypress reserves the right to make changes without further notice to the
  30:Generated_Source\PSoC6/CapSense_1_Structure.c **** * materials described herein. Cypress does not assume any liability arising out
ARM GAS  C:\Users\Bryce\AppData\Local\Temp\ccLuOGF3.s 			page 2


  31:Generated_Source\PSoC6/CapSense_1_Structure.c **** * of the application or use of any product or circuit described herein. Cypress
  32:Generated_Source\PSoC6/CapSense_1_Structure.c **** * does not authorize its products for use as critical components in life-support
  33:Generated_Source\PSoC6/CapSense_1_Structure.c **** * systems where a malfunction or failure may reasonably be expected to result in
  34:Generated_Source\PSoC6/CapSense_1_Structure.c **** * significant injury to the user. The inclusion of Cypress' product in a life-
  35:Generated_Source\PSoC6/CapSense_1_Structure.c **** * support systems application implies that the manufacturer assumes all risk of
  36:Generated_Source\PSoC6/CapSense_1_Structure.c **** * such use and in doing so indemnifies Cypress against all charges. Use may be
  37:Generated_Source\PSoC6/CapSense_1_Structure.c **** * limited by and subject to the applicable Cypress software license agreement.
  38:Generated_Source\PSoC6/CapSense_1_Structure.c **** *******************************************************************************/
  39:Generated_Source\PSoC6/CapSense_1_Structure.c **** 
  40:Generated_Source\PSoC6/CapSense_1_Structure.c **** #include "syslib/cy_syslib.h"
  41:Generated_Source\PSoC6/CapSense_1_Structure.c **** #include <stddef.h>
  42:Generated_Source\PSoC6/CapSense_1_Structure.c **** #include <string.h>
  43:Generated_Source\PSoC6/CapSense_1_Structure.c **** #include "cyfitter_gpio.h"
  44:Generated_Source\PSoC6/CapSense_1_Structure.c **** 
  45:Generated_Source\PSoC6/CapSense_1_Structure.c **** #include "CapSense_1_Structure.h"
  46:Generated_Source\PSoC6/CapSense_1_Structure.c **** #include "CapSense_1_Configuration.h"
  47:Generated_Source\PSoC6/CapSense_1_Structure.c **** 
  48:Generated_Source\PSoC6/CapSense_1_Structure.c **** #if (0u != CapSense_1_ADC_EN)
  49:Generated_Source\PSoC6/CapSense_1_Structure.c ****     #include "CapSense_1_Adc.h"
  50:Generated_Source\PSoC6/CapSense_1_Structure.c **** #endif /* (0u != CapSense_1_ADC_EN) */
  51:Generated_Source\PSoC6/CapSense_1_Structure.c **** 
  52:Generated_Source\PSoC6/CapSense_1_Structure.c **** #if (CapSense_1_ENABLE == CapSense_1_SELF_TEST_EN)
  53:Generated_Source\PSoC6/CapSense_1_Structure.c ****     #include "CapSense_1_SelfTest.h"
  54:Generated_Source\PSoC6/CapSense_1_Structure.c **** #endif
  55:Generated_Source\PSoC6/CapSense_1_Structure.c **** 
  56:Generated_Source\PSoC6/CapSense_1_Structure.c **** #if (CapSense_1_ENABLE == CapSense_1_CENTROID_5X5_CSD_EN)
  57:Generated_Source\PSoC6/CapSense_1_Structure.c ****     #include "CapSense_1_AdvancedCentroid_LL.h"
  58:Generated_Source\PSoC6/CapSense_1_Structure.c **** #endif
  59:Generated_Source\PSoC6/CapSense_1_Structure.c **** 
  60:Generated_Source\PSoC6/CapSense_1_Structure.c **** #if (CapSense_1_ENABLE == CapSense_1_GES_GLOBAL_EN)
  61:Generated_Source\PSoC6/CapSense_1_Structure.c ****     #include "CapSense_1_Gesture.h"
  62:Generated_Source\PSoC6/CapSense_1_Structure.c **** #endif /* (CapSense_1_ENABLE == CapSense_1_GES_GLOBAL_EN) */
  63:Generated_Source\PSoC6/CapSense_1_Structure.c **** 
  64:Generated_Source\PSoC6/CapSense_1_Structure.c **** /*******************************************************************************
  65:Generated_Source\PSoC6/CapSense_1_Structure.c **** * Defines the RAM Data Structure variables and their init data in flash
  66:Generated_Source\PSoC6/CapSense_1_Structure.c **** *******************************************************************************/
  67:Generated_Source\PSoC6/CapSense_1_Structure.c **** /**
  68:Generated_Source\PSoC6/CapSense_1_Structure.c **** * \cond SECTION_GLOBAL_VARIABLES
  69:Generated_Source\PSoC6/CapSense_1_Structure.c **** * \addtogroup group_global_variables
  70:Generated_Source\PSoC6/CapSense_1_Structure.c **** * \{
  71:Generated_Source\PSoC6/CapSense_1_Structure.c **** */
  72:Generated_Source\PSoC6/CapSense_1_Structure.c **** 
  73:Generated_Source\PSoC6/CapSense_1_Structure.c **** /**
  74:Generated_Source\PSoC6/CapSense_1_Structure.c **** * The variable that contains the CapSense_1 configuration, settings and
  75:Generated_Source\PSoC6/CapSense_1_Structure.c **** * scanning results. CapSense_1_dsRam represents RAM Data Structure.
  76:Generated_Source\PSoC6/CapSense_1_Structure.c **** */
  77:Generated_Source\PSoC6/CapSense_1_Structure.c **** CapSense_1_RAM_STRUCT CapSense_1_dsRam;
  78:Generated_Source\PSoC6/CapSense_1_Structure.c **** /** \}
  79:Generated_Source\PSoC6/CapSense_1_Structure.c **** * \endcond */
  80:Generated_Source\PSoC6/CapSense_1_Structure.c **** 
  81:Generated_Source\PSoC6/CapSense_1_Structure.c **** /*******************************************************************************
  82:Generated_Source\PSoC6/CapSense_1_Structure.c **** * Declares Widget's De-bounce Counters
  83:Generated_Source\PSoC6/CapSense_1_Structure.c **** *******************************************************************************/
  84:Generated_Source\PSoC6/CapSense_1_Structure.c **** static uint8 CapSense_1_debounceHitSensor[CapSense_1_HITSENSOR_NUM_SENSORS];
  85:Generated_Source\PSoC6/CapSense_1_Structure.c **** 
  86:Generated_Source\PSoC6/CapSense_1_Structure.c **** 
  87:Generated_Source\PSoC6/CapSense_1_Structure.c **** /***************************************************************************//**
ARM GAS  C:\Users\Bryce\AppData\Local\Temp\ccLuOGF3.s 			page 3


  88:Generated_Source\PSoC6/CapSense_1_Structure.c **** * Declares Noise Envelope data structures
  89:Generated_Source\PSoC6/CapSense_1_Structure.c **** *******************************************************************************/
  90:Generated_Source\PSoC6/CapSense_1_Structure.c **** static SMARTSENSE_CSD_NOISE_ENVELOPE_STRUCT CapSense_1_noiseEnvlpHitSensor[CapSense_1_HITSENSOR_NUM
  91:Generated_Source\PSoC6/CapSense_1_Structure.c **** 
  92:Generated_Source\PSoC6/CapSense_1_Structure.c **** /*******************************************************************************
  93:Generated_Source\PSoC6/CapSense_1_Structure.c **** * Defines and initializes the Flash Data Structure
  94:Generated_Source\PSoC6/CapSense_1_Structure.c **** *******************************************************************************/
  95:Generated_Source\PSoC6/CapSense_1_Structure.c **** 
  96:Generated_Source\PSoC6/CapSense_1_Structure.c **** 
  97:Generated_Source\PSoC6/CapSense_1_Structure.c **** 
  98:Generated_Source\PSoC6/CapSense_1_Structure.c **** /**
  99:Generated_Source\PSoC6/CapSense_1_Structure.c **** * \cond SECTION_API_CONSTANTS
 100:Generated_Source\PSoC6/CapSense_1_Structure.c **** * \addtogroup group_api_constants
 101:Generated_Source\PSoC6/CapSense_1_Structure.c **** * \{
 102:Generated_Source\PSoC6/CapSense_1_Structure.c **** */
 103:Generated_Source\PSoC6/CapSense_1_Structure.c **** /**
 104:Generated_Source\PSoC6/CapSense_1_Structure.c **** * Constant for the FLASH Data Structure
 105:Generated_Source\PSoC6/CapSense_1_Structure.c **** */
 106:Generated_Source\PSoC6/CapSense_1_Structure.c **** const CapSense_1_FLASH_STRUCT CapSense_1_dsFlash =
 107:Generated_Source\PSoC6/CapSense_1_Structure.c **** {
 108:Generated_Source\PSoC6/CapSense_1_Structure.c ****     /* Flash Widget Initialization Data */
 109:Generated_Source\PSoC6/CapSense_1_Structure.c ****     {
 110:Generated_Source\PSoC6/CapSense_1_Structure.c ****         { /* HitSensor */
 111:Generated_Source\PSoC6/CapSense_1_Structure.c ****             &CapSense_1_ioList[0u],
 112:Generated_Source\PSoC6/CapSense_1_Structure.c ****             (void *)&CapSense_1_dsRam.wdgtList.hitsensor,
 113:Generated_Source\PSoC6/CapSense_1_Structure.c ****             CapSense_1_dsRam.snsList.hitsensor,
 114:Generated_Source\PSoC6/CapSense_1_Structure.c ****             (void *)0u,
 115:Generated_Source\PSoC6/CapSense_1_Structure.c ****             CapSense_1_debounceHitSensor,
 116:Generated_Source\PSoC6/CapSense_1_Structure.c ****             CapSense_1_HITSENSOR_STATIC_CONFIG,
 117:Generated_Source\PSoC6/CapSense_1_Structure.c ****             CapSense_1_HITSENSOR_NUM_SENSORS,
 118:Generated_Source\PSoC6/CapSense_1_Structure.c ****             (uint8)CapSense_1_WD_BUTTON_E,
 119:Generated_Source\PSoC6/CapSense_1_Structure.c ****             CapSense_1_HITSENSOR_NUM_SENSORS,
 120:Generated_Source\PSoC6/CapSense_1_Structure.c ****             CapSense_1_noiseEnvlpHitSensor,
 121:Generated_Source\PSoC6/CapSense_1_Structure.c ****         },
 122:Generated_Source\PSoC6/CapSense_1_Structure.c ****     },
 123:Generated_Source\PSoC6/CapSense_1_Structure.c **** };
 124:Generated_Source\PSoC6/CapSense_1_Structure.c **** 
 125:Generated_Source\PSoC6/CapSense_1_Structure.c **** /**
 126:Generated_Source\PSoC6/CapSense_1_Structure.c **** * The array of the pointers to the electrode specific register.
 127:Generated_Source\PSoC6/CapSense_1_Structure.c **** */
 128:Generated_Source\PSoC6/CapSense_1_Structure.c **** const CapSense_1_FLASH_IO_STRUCT CapSense_1_ioList[CapSense_1_TOTAL_ELECTRODES] =
 129:Generated_Source\PSoC6/CapSense_1_Structure.c **** {
 130:Generated_Source\PSoC6/CapSense_1_Structure.c ****     { /* 0: HitSensor_Sns0 */
 131:Generated_Source\PSoC6/CapSense_1_Structure.c ****         CapSense_1_Sns_0_PORT,
 132:Generated_Source\PSoC6/CapSense_1_Structure.c ****         (uint8)CapSense_1_Sns_0_NUM,
 133:Generated_Source\PSoC6/CapSense_1_Structure.c ****     },
 134:Generated_Source\PSoC6/CapSense_1_Structure.c **** };
 135:Generated_Source\PSoC6/CapSense_1_Structure.c **** 
 136:Generated_Source\PSoC6/CapSense_1_Structure.c **** 
 137:Generated_Source\PSoC6/CapSense_1_Structure.c **** 
 138:Generated_Source\PSoC6/CapSense_1_Structure.c **** /** \}
 139:Generated_Source\PSoC6/CapSense_1_Structure.c **** * \endcond */
 140:Generated_Source\PSoC6/CapSense_1_Structure.c **** 
 141:Generated_Source\PSoC6/CapSense_1_Structure.c **** /* Initialization data for RAM widget list */
 142:Generated_Source\PSoC6/CapSense_1_Structure.c **** const CapSense_1_RAM_WD_LIST_STRUCT CapSense_1_ramWidgetInit =
 143:Generated_Source\PSoC6/CapSense_1_Structure.c **** {
 144:Generated_Source\PSoC6/CapSense_1_Structure.c ****     { /* HitSensor */
ARM GAS  C:\Users\Bryce\AppData\Local\Temp\ccLuOGF3.s 			page 4


 145:Generated_Source\PSoC6/CapSense_1_Structure.c ****         CapSense_1_HITSENSOR_RESOLUTION,
 146:Generated_Source\PSoC6/CapSense_1_Structure.c ****         CapSense_1_HITSENSOR_FINGER_TH,
 147:Generated_Source\PSoC6/CapSense_1_Structure.c ****         CapSense_1_HITSENSOR_NOISE_TH,
 148:Generated_Source\PSoC6/CapSense_1_Structure.c ****         CapSense_1_HITSENSOR_NNOISE_TH,
 149:Generated_Source\PSoC6/CapSense_1_Structure.c ****         CapSense_1_HITSENSOR_HYSTERESIS,
 150:Generated_Source\PSoC6/CapSense_1_Structure.c ****         CapSense_1_HITSENSOR_ON_DEBOUNCE,
 151:Generated_Source\PSoC6/CapSense_1_Structure.c ****         CapSense_1_HITSENSOR_LOW_BSLN_RST,
 152:Generated_Source\PSoC6/CapSense_1_Structure.c ****         {
 153:Generated_Source\PSoC6/CapSense_1_Structure.c ****             CapSense_1_HITSENSOR_IDAC_MOD0,
 154:Generated_Source\PSoC6/CapSense_1_Structure.c ****         },
 155:Generated_Source\PSoC6/CapSense_1_Structure.c ****         CapSense_1_HITSENSOR_SNS_CLK,
 156:Generated_Source\PSoC6/CapSense_1_Structure.c ****         CapSense_1_HITSENSOR_SNS_CLK_SOURCE,
 157:Generated_Source\PSoC6/CapSense_1_Structure.c ****         CapSense_1_HITSENSOR_FINGER_CAP,
 158:Generated_Source\PSoC6/CapSense_1_Structure.c ****         CapSense_1_HITSENSOR_SIGPFC,
 159:Generated_Source\PSoC6/CapSense_1_Structure.c ****     },
 160:Generated_Source\PSoC6/CapSense_1_Structure.c **** };
 161:Generated_Source\PSoC6/CapSense_1_Structure.c **** 
 162:Generated_Source\PSoC6/CapSense_1_Structure.c **** 
 163:Generated_Source\PSoC6/CapSense_1_Structure.c **** /* IDAC Initialization Data */
 164:Generated_Source\PSoC6/CapSense_1_Structure.c **** const uint8 CapSense_1_ramIdacInit[CapSense_1_TOTAL_SENSORS] =
 165:Generated_Source\PSoC6/CapSense_1_Structure.c **** {
 166:Generated_Source\PSoC6/CapSense_1_Structure.c ****     /* HitSensor */
 167:Generated_Source\PSoC6/CapSense_1_Structure.c ****     CapSense_1_HITSENSOR_SNS0_IDAC_COMP0,
 168:Generated_Source\PSoC6/CapSense_1_Structure.c **** };
 169:Generated_Source\PSoC6/CapSense_1_Structure.c **** 
 170:Generated_Source\PSoC6/CapSense_1_Structure.c **** 
 171:Generated_Source\PSoC6/CapSense_1_Structure.c **** 
 172:Generated_Source\PSoC6/CapSense_1_Structure.c **** /*******************************************************************************
 173:Generated_Source\PSoC6/CapSense_1_Structure.c **** * Defines internal data types and statements
 174:Generated_Source\PSoC6/CapSense_1_Structure.c **** *******************************************************************************/
 175:Generated_Source\PSoC6/CapSense_1_Structure.c **** #define PARAM_TYPE_OFFSET       (30u)
 176:Generated_Source\PSoC6/CapSense_1_Structure.c **** #define PARAM_TYPE_MASK         (3Lu << PARAM_TYPE_OFFSET)
 177:Generated_Source\PSoC6/CapSense_1_Structure.c **** #define PARAM_RWBIT_OFFSET      (29u)
 178:Generated_Source\PSoC6/CapSense_1_Structure.c **** #define PARAM_RWBIT_MASK        (1Lu << PARAM_RWBIT_OFFSET)
 179:Generated_Source\PSoC6/CapSense_1_Structure.c **** #define PARAM_FBIT_OFFSET       (28u)
 180:Generated_Source\PSoC6/CapSense_1_Structure.c **** #define PARAM_FBIT_MASK         (1Lu << PARAM_FBIT_OFFSET)
 181:Generated_Source\PSoC6/CapSense_1_Structure.c **** #define PARAM_UBIT_OFFSET       (23u)
 182:Generated_Source\PSoC6/CapSense_1_Structure.c **** #define PARAM_UBIT_MASK         (1Lu << PARAM_UBIT_OFFSET)
 183:Generated_Source\PSoC6/CapSense_1_Structure.c **** #define PARAM_WDID_OFFSET       (16u)
 184:Generated_Source\PSoC6/CapSense_1_Structure.c **** #define PARAM_WDID_MASK         (0x7FLu << PARAM_WDID_OFFSET)
 185:Generated_Source\PSoC6/CapSense_1_Structure.c **** #define PARAM_CRC_OFFSET        (24u)
 186:Generated_Source\PSoC6/CapSense_1_Structure.c **** #define PARAM_CRC_MASK          (0x0FLu << PARAM_CRC_OFFSET)
 187:Generated_Source\PSoC6/CapSense_1_Structure.c **** 
 188:Generated_Source\PSoC6/CapSense_1_Structure.c **** /* Defines align masks for uint16 and uint32 */
 189:Generated_Source\PSoC6/CapSense_1_Structure.c **** #define UINT16_ALIGN_MASK       (1Lu)
 190:Generated_Source\PSoC6/CapSense_1_Structure.c **** #define UINT32_ALIGN_MASK       (3Lu)
 191:Generated_Source\PSoC6/CapSense_1_Structure.c **** 
 192:Generated_Source\PSoC6/CapSense_1_Structure.c **** /* Defines supported parameter types */
 193:Generated_Source\PSoC6/CapSense_1_Structure.c **** #define DS_PARAM_TYPE_UINT8     (0x01u)
 194:Generated_Source\PSoC6/CapSense_1_Structure.c **** #define DS_PARAM_TYPE_UINT16    (0x02u)
 195:Generated_Source\PSoC6/CapSense_1_Structure.c **** #define DS_PARAM_TYPE_UINT32    (0x03u)
 196:Generated_Source\PSoC6/CapSense_1_Structure.c **** 
 197:Generated_Source\PSoC6/CapSense_1_Structure.c **** 
 198:Generated_Source\PSoC6/CapSense_1_Structure.c **** /* Defines PARAM_ID structure */
 199:Generated_Source\PSoC6/CapSense_1_Structure.c **** typedef struct
 200:Generated_Source\PSoC6/CapSense_1_Structure.c **** {
 201:Generated_Source\PSoC6/CapSense_1_Structure.c ****     uint16 offset;      /* parameter offset */
ARM GAS  C:\Users\Bryce\AppData\Local\Temp\ccLuOGF3.s 			page 5


 202:Generated_Source\PSoC6/CapSense_1_Structure.c ****     uint8  widgetId;    /* widget Id parameter belongs to */
 203:Generated_Source\PSoC6/CapSense_1_Structure.c ****     uint8  affectsCrc;  /* parameter affects widget CRC */
 204:Generated_Source\PSoC6/CapSense_1_Structure.c ****     uint8  crc;         /* parameter CRC */
 205:Generated_Source\PSoC6/CapSense_1_Structure.c ****     uint8  flash;       /* parameter located in FLASH flag */
 206:Generated_Source\PSoC6/CapSense_1_Structure.c ****     uint8  rw;          /* parameter is read/write flag */
 207:Generated_Source\PSoC6/CapSense_1_Structure.c ****     uint8  type;        /* parameter type: uint8/uint16/uint32 */
 208:Generated_Source\PSoC6/CapSense_1_Structure.c **** } PARAM_ID_STRUCT;
 209:Generated_Source\PSoC6/CapSense_1_Structure.c **** 
 210:Generated_Source\PSoC6/CapSense_1_Structure.c **** 
 211:Generated_Source\PSoC6/CapSense_1_Structure.c **** /*******************************************************************************
 212:Generated_Source\PSoC6/CapSense_1_Structure.c **** * Static Function Prototypes
 213:Generated_Source\PSoC6/CapSense_1_Structure.c **** *******************************************************************************/
 214:Generated_Source\PSoC6/CapSense_1_Structure.c **** /**
 215:Generated_Source\PSoC6/CapSense_1_Structure.c **** * \cond SECTION_CYSENSE_INTERNAL
 216:Generated_Source\PSoC6/CapSense_1_Structure.c **** * \addtogroup group_cysense_internal
 217:Generated_Source\PSoC6/CapSense_1_Structure.c **** * \{
 218:Generated_Source\PSoC6/CapSense_1_Structure.c **** */
 219:Generated_Source\PSoC6/CapSense_1_Structure.c **** 
 220:Generated_Source\PSoC6/CapSense_1_Structure.c **** 
 221:Generated_Source\PSoC6/CapSense_1_Structure.c **** 
 222:Generated_Source\PSoC6/CapSense_1_Structure.c **** static cy_status DsParseParamId(uint32 paramId, PARAM_ID_STRUCT *pData);
 223:Generated_Source\PSoC6/CapSense_1_Structure.c **** 
 224:Generated_Source\PSoC6/CapSense_1_Structure.c **** /** \}
 225:Generated_Source\PSoC6/CapSense_1_Structure.c **** * \endcond */
 226:Generated_Source\PSoC6/CapSense_1_Structure.c **** 
 227:Generated_Source\PSoC6/CapSense_1_Structure.c **** 
 228:Generated_Source\PSoC6/CapSense_1_Structure.c **** /*******************************************************************************
 229:Generated_Source\PSoC6/CapSense_1_Structure.c **** * Function Name: CapSense_1_DsInitialize
 230:Generated_Source\PSoC6/CapSense_1_Structure.c **** ****************************************************************************//**
 231:Generated_Source\PSoC6/CapSense_1_Structure.c **** *
 232:Generated_Source\PSoC6/CapSense_1_Structure.c **** * \brief
 233:Generated_Source\PSoC6/CapSense_1_Structure.c **** *   This function initializes the Data Structure storage.
 234:Generated_Source\PSoC6/CapSense_1_Structure.c **** *
 235:Generated_Source\PSoC6/CapSense_1_Structure.c **** * \details
 236:Generated_Source\PSoC6/CapSense_1_Structure.c **** *   This function copies the default widget configuration parameters
 237:Generated_Source\PSoC6/CapSense_1_Structure.c **** *   from the Flash storage into the RAM Data Structure.
 238:Generated_Source\PSoC6/CapSense_1_Structure.c **** *
 239:Generated_Source\PSoC6/CapSense_1_Structure.c **** *******************************************************************************/
 240:Generated_Source\PSoC6/CapSense_1_Structure.c **** void CapSense_1_DsInitialize(void)
 241:Generated_Source\PSoC6/CapSense_1_Structure.c **** {
 242:Generated_Source\PSoC6/CapSense_1_Structure.c ****     #if ((CapSense_1_ENABLE == CapSense_1_CSX_EN) || \
 243:Generated_Source\PSoC6/CapSense_1_Structure.c ****          (CapSense_1_ENABLE == CapSense_1_CSD_IDAC_COMP_EN) || \
 244:Generated_Source\PSoC6/CapSense_1_Structure.c ****         ((CapSense_1_ENABLE == CapSense_1_CSX_EN) && \
 245:Generated_Source\PSoC6/CapSense_1_Structure.c ****          (CapSense_1_ENABLE == CapSense_1_CSX_SKIP_OVSMPL_SPECIFIC_NODES)))
 246:Generated_Source\PSoC6/CapSense_1_Structure.c ****         uint32 snsId;
 247:Generated_Source\PSoC6/CapSense_1_Structure.c ****         uint32 wdgtId;
 248:Generated_Source\PSoC6/CapSense_1_Structure.c ****         CapSense_1_RAM_SNS_STRUCT * ptrSnsTmp;
 249:Generated_Source\PSoC6/CapSense_1_Structure.c ****         CapSense_1_FLASH_WD_STRUCT const * ptrFlashWdgt;
 250:Generated_Source\PSoC6/CapSense_1_Structure.c ****     #endif
 251:Generated_Source\PSoC6/CapSense_1_Structure.c **** 
 252:Generated_Source\PSoC6/CapSense_1_Structure.c ****     #if ((CapSense_1_ENABLE == CapSense_1_CSX_EN) && \
 253:Generated_Source\PSoC6/CapSense_1_Structure.c ****          (CapSense_1_ENABLE == CapSense_1_CSX_SKIP_OVSMPL_SPECIFIC_NODES))
 254:Generated_Source\PSoC6/CapSense_1_Structure.c ****         uint16 subConvNumber;
 255:Generated_Source\PSoC6/CapSense_1_Structure.c ****     #endif
 256:Generated_Source\PSoC6/CapSense_1_Structure.c **** 
 257:Generated_Source\PSoC6/CapSense_1_Structure.c ****     #if (0u != CapSense_1_CSX_EN) || (0 != CapSense_1_CSD_IDAC_COMP_EN)
 258:Generated_Source\PSoC6/CapSense_1_Structure.c ****         uint8 const * ptrIdacInit = CapSense_1_ramIdacInit;
ARM GAS  C:\Users\Bryce\AppData\Local\Temp\ccLuOGF3.s 			page 6


 259:Generated_Source\PSoC6/CapSense_1_Structure.c ****     #endif
 260:Generated_Source\PSoC6/CapSense_1_Structure.c **** 
 261:Generated_Source\PSoC6/CapSense_1_Structure.c ****     /* Reset RAM data structure content */
 262:Generated_Source\PSoC6/CapSense_1_Structure.c ****     (void)memset(&CapSense_1_dsRam, 0, sizeof(CapSense_1_dsRam));
 263:Generated_Source\PSoC6/CapSense_1_Structure.c **** 
 264:Generated_Source\PSoC6/CapSense_1_Structure.c ****     /* Initialize configId, deviceId and hwClock registers */
 265:Generated_Source\PSoC6/CapSense_1_Structure.c ****     CapSense_1_dsRam.configId = CapSense_1_CONFIG_ID;
 266:Generated_Source\PSoC6/CapSense_1_Structure.c ****     CapSense_1_dsRam.deviceId = CapSense_1_DEVICE_ID;
 267:Generated_Source\PSoC6/CapSense_1_Structure.c ****     CapSense_1_dsRam.hwClock = CapSense_1_HW_CLOCK;
 268:Generated_Source\PSoC6/CapSense_1_Structure.c **** 
 269:Generated_Source\PSoC6/CapSense_1_Structure.c ****     /* Initialize global RAM data */
 270:Generated_Source\PSoC6/CapSense_1_Structure.c ****     CapSense_1_dsRam.csd0Config = CapSense_1_CSD0_CONFIG;
 271:Generated_Source\PSoC6/CapSense_1_Structure.c **** 
 272:Generated_Source\PSoC6/CapSense_1_Structure.c ****     #if (0u != CapSense_1_TOTAL_CSD_WIDGETS)
 273:Generated_Source\PSoC6/CapSense_1_Structure.c ****         CapSense_1_dsRam.modCsdClk = CapSense_1_CSD_SCANSPEED_DIVIDER;
 274:Generated_Source\PSoC6/CapSense_1_Structure.c **** 
 275:Generated_Source\PSoC6/CapSense_1_Structure.c ****         #if (0u != CapSense_1_CSD_COMMON_SNS_CLK_EN)
 276:Generated_Source\PSoC6/CapSense_1_Structure.c ****             CapSense_1_dsRam.snsCsdClk = CapSense_1_CSD_SNS_CLK_DIVIDER;
 277:Generated_Source\PSoC6/CapSense_1_Structure.c ****         #endif /* #if (0u != CapSense_1_CSD_COMMON_SNS_CLK_EN) */
 278:Generated_Source\PSoC6/CapSense_1_Structure.c ****     #endif /* #if (0u != CapSense_1_TOTAL_CSD_WIDGETS) */
 279:Generated_Source\PSoC6/CapSense_1_Structure.c **** 
 280:Generated_Source\PSoC6/CapSense_1_Structure.c ****     #if (0u != CapSense_1_CSX_EN)
 281:Generated_Source\PSoC6/CapSense_1_Structure.c ****         CapSense_1_dsRam.modCsxClk = CapSense_1_CSX_SCANSPEED_DIVIDER;
 282:Generated_Source\PSoC6/CapSense_1_Structure.c **** 
 283:Generated_Source\PSoC6/CapSense_1_Structure.c ****         #if (0u != CapSense_1_CSX_COMMON_TX_CLK_EN)
 284:Generated_Source\PSoC6/CapSense_1_Structure.c ****             CapSense_1_dsRam.snsCsxClk = CapSense_1_CSX_TX_CLK_DIVIDER;
 285:Generated_Source\PSoC6/CapSense_1_Structure.c ****         #endif /* #if (0u != CapSense_1_CSX_COMMON_TX_CLK_EN) */
 286:Generated_Source\PSoC6/CapSense_1_Structure.c ****     #endif /* #if (0u != CapSense_1_CSX_EN) */
 287:Generated_Source\PSoC6/CapSense_1_Structure.c **** 
 288:Generated_Source\PSoC6/CapSense_1_Structure.c ****     #if (0u != CapSense_1_SELF_TEST_EN)
 289:Generated_Source\PSoC6/CapSense_1_Structure.c ****         CapSense_1_dsRam.glbCrc = CapSense_1_GLB_CRC;
 290:Generated_Source\PSoC6/CapSense_1_Structure.c ****     #endif /* #if (0u != CapSense_1_SELF_TEST_EN) */
 291:Generated_Source\PSoC6/CapSense_1_Structure.c **** 
 292:Generated_Source\PSoC6/CapSense_1_Structure.c ****     /* Initialize RAM widget data */
 293:Generated_Source\PSoC6/CapSense_1_Structure.c ****     CapSense_1_dsRam.wdgtList = CapSense_1_ramWidgetInit;
 294:Generated_Source\PSoC6/CapSense_1_Structure.c **** 
 295:Generated_Source\PSoC6/CapSense_1_Structure.c ****     /* Initialize Gesture configuration structure */
 296:Generated_Source\PSoC6/CapSense_1_Structure.c ****     #if ((0u != CapSense_1_GES_GLOBAL_EN) || (0u != CapSense_1_BALLISTIC_MULTIPLIER_EN))
 297:Generated_Source\PSoC6/CapSense_1_Structure.c ****         CapSense_1_dsRam.timestampInterval = CapSense_1_TIMESTAMP_INTERVAL;
 298:Generated_Source\PSoC6/CapSense_1_Structure.c ****     #endif /* ((0u != CapSense_1_GES_GLOBAL_EN) || (0u != CapSense_1_BALLISTIC_MULTIPLIER_EN)) */
 299:Generated_Source\PSoC6/CapSense_1_Structure.c **** 
 300:Generated_Source\PSoC6/CapSense_1_Structure.c ****     #if (0u != CapSense_1_GES_GLOBAL_EN)
 301:Generated_Source\PSoC6/CapSense_1_Structure.c ****         CapSense_1_dsRam.gestures = CapSense_1_ramGesturesInit;
 302:Generated_Source\PSoC6/CapSense_1_Structure.c ****     #endif /* (0u != CapSense_1_GES_GLOBAL_EN) */
 303:Generated_Source\PSoC6/CapSense_1_Structure.c **** 
 304:Generated_Source\PSoC6/CapSense_1_Structure.c ****     #if (0u != CapSense_1_BALLISTIC_MULTIPLIER_EN)
 305:Generated_Source\PSoC6/CapSense_1_Structure.c ****         CapSense_1_dsRam.ballisticConfig = CapSense_1_ramBallisticInit;
 306:Generated_Source\PSoC6/CapSense_1_Structure.c ****     #endif /* (0u != CapSense_1_BALLISTIC_MULTIPLIER_EN) */
 307:Generated_Source\PSoC6/CapSense_1_Structure.c **** 
 308:Generated_Source\PSoC6/CapSense_1_Structure.c ****     #if (0u != CapSense_1_CSX_EN) || (0 != CapSense_1_CSD_IDAC_COMP_EN)
 309:Generated_Source\PSoC6/CapSense_1_Structure.c ****         /* Initialize IDAC data */
 310:Generated_Source\PSoC6/CapSense_1_Structure.c ****         ptrFlashWdgt = CapSense_1_dsFlash.wdgtArray;
 311:Generated_Source\PSoC6/CapSense_1_Structure.c **** 
 312:Generated_Source\PSoC6/CapSense_1_Structure.c ****         for (wdgtId = CapSense_1_TOTAL_WIDGETS; wdgtId-- > 0u; )
 313:Generated_Source\PSoC6/CapSense_1_Structure.c ****         {
 314:Generated_Source\PSoC6/CapSense_1_Structure.c ****             ptrSnsTmp = ptrFlashWdgt->ptr2SnsRam;
 315:Generated_Source\PSoC6/CapSense_1_Structure.c **** 
ARM GAS  C:\Users\Bryce\AppData\Local\Temp\ccLuOGF3.s 			page 7


 316:Generated_Source\PSoC6/CapSense_1_Structure.c ****             for (snsId = CapSense_1_GET_SNS_CNT_BY_PTR(ptrFlashWdgt); snsId-- > 0u;)
 317:Generated_Source\PSoC6/CapSense_1_Structure.c ****             {
 318:Generated_Source\PSoC6/CapSense_1_Structure.c ****                 ptrSnsTmp->idacComp[0u] = *ptrIdacInit;
 319:Generated_Source\PSoC6/CapSense_1_Structure.c ****                 ptrIdacInit++;
 320:Generated_Source\PSoC6/CapSense_1_Structure.c **** 
 321:Generated_Source\PSoC6/CapSense_1_Structure.c ****                 #if (0u != CapSense_1_MULTI_FREQ_SCAN_EN)
 322:Generated_Source\PSoC6/CapSense_1_Structure.c ****                     ptrSnsTmp->idacComp[1u] = *ptrIdacInit;
 323:Generated_Source\PSoC6/CapSense_1_Structure.c ****                     ptrIdacInit++;
 324:Generated_Source\PSoC6/CapSense_1_Structure.c **** 
 325:Generated_Source\PSoC6/CapSense_1_Structure.c ****                     ptrSnsTmp->idacComp[2u] = *ptrIdacInit;
 326:Generated_Source\PSoC6/CapSense_1_Structure.c ****                     ptrIdacInit++;
 327:Generated_Source\PSoC6/CapSense_1_Structure.c ****                 #endif /* #if (0u != CapSense_1_MULTI_FREQ_SCAN_EN) */
 328:Generated_Source\PSoC6/CapSense_1_Structure.c **** 
 329:Generated_Source\PSoC6/CapSense_1_Structure.c ****                 ptrSnsTmp++;
 330:Generated_Source\PSoC6/CapSense_1_Structure.c ****             }
 331:Generated_Source\PSoC6/CapSense_1_Structure.c **** 
 332:Generated_Source\PSoC6/CapSense_1_Structure.c ****             ptrFlashWdgt++; /* Move to next widget */
 333:Generated_Source\PSoC6/CapSense_1_Structure.c ****         }
 334:Generated_Source\PSoC6/CapSense_1_Structure.c ****     #endif /*(0u != CapSense_1_CSX_EN) || (0 != CapSense_1_CSD_IDAC_COMP_EN)*/
 335:Generated_Source\PSoC6/CapSense_1_Structure.c **** 
 336:Generated_Source\PSoC6/CapSense_1_Structure.c ****     #if ((CapSense_1_ENABLE == CapSense_1_CSX_EN) && \
 337:Generated_Source\PSoC6/CapSense_1_Structure.c ****          (CapSense_1_ENABLE == CapSense_1_CSX_SKIP_OVSMPL_SPECIFIC_NODES))
 338:Generated_Source\PSoC6/CapSense_1_Structure.c ****         /* Initialize Sub-Conversion Number for each node of each CSX widget */
 339:Generated_Source\PSoC6/CapSense_1_Structure.c ****         ptrFlashWdgt = CapSense_1_dsFlash.wdgtArray;
 340:Generated_Source\PSoC6/CapSense_1_Structure.c ****         for (wdgtId = CapSense_1_TOTAL_WIDGETS; wdgtId-- > 0u;)
 341:Generated_Source\PSoC6/CapSense_1_Structure.c ****         {
 342:Generated_Source\PSoC6/CapSense_1_Structure.c ****             /* Check for widget sense method */
 343:Generated_Source\PSoC6/CapSense_1_Structure.c ****             if (CapSense_1_SENSE_METHOD_CSX_E == CapSense_1_GET_SENSE_METHOD(ptrFlashWdgt))
 344:Generated_Source\PSoC6/CapSense_1_Structure.c ****             {
 345:Generated_Source\PSoC6/CapSense_1_Structure.c ****                 /* Take the sub-convesion number of a CSX widget and initialize each node of this w
 346:Generated_Source\PSoC6/CapSense_1_Structure.c ****                 subConvNumber = ((CapSense_1_RAM_WD_BASE_STRUCT *)(ptrFlashWdgt->ptr2WdgtRam))->res
 347:Generated_Source\PSoC6/CapSense_1_Structure.c ****                 ptrSnsTmp = ptrFlashWdgt->ptr2SnsRam;
 348:Generated_Source\PSoC6/CapSense_1_Structure.c ****                 for (snsId = CapSense_1_GET_SNS_CNT_BY_PTR(ptrFlashWdgt); snsId-- > 0u;)
 349:Generated_Source\PSoC6/CapSense_1_Structure.c ****                 {
 350:Generated_Source\PSoC6/CapSense_1_Structure.c ****                     ptrSnsTmp->subConvNum = subConvNumber;
 351:Generated_Source\PSoC6/CapSense_1_Structure.c ****                     ptrSnsTmp++;
 352:Generated_Source\PSoC6/CapSense_1_Structure.c ****                 }
 353:Generated_Source\PSoC6/CapSense_1_Structure.c ****             }
 354:Generated_Source\PSoC6/CapSense_1_Structure.c ****             /* Move to the next widget */
 355:Generated_Source\PSoC6/CapSense_1_Structure.c ****             ptrFlashWdgt++;
 356:Generated_Source\PSoC6/CapSense_1_Structure.c ****         }
 357:Generated_Source\PSoC6/CapSense_1_Structure.c ****     #endif /* ((CapSense_1_ENABLE == CapSense_1_CSX_EN) && \
 358:Generated_Source\PSoC6/CapSense_1_Structure.c ****                (CapSense_1_ENABLE == CapSense_1_CSX_SKIP_OVSMPL_SPECIFIC_NODES)) */
 359:Generated_Source\PSoC6/CapSense_1_Structure.c **** 
 360:Generated_Source\PSoC6/CapSense_1_Structure.c ****     #if (0u != CapSense_1_ADC_EN)
 361:Generated_Source\PSoC6/CapSense_1_Structure.c ****         CapSense_1_AdcDsInitialize();
 362:Generated_Source\PSoC6/CapSense_1_Structure.c ****     #endif /* (0u != CapSense_1_ADC_EN) */
 363:Generated_Source\PSoC6/CapSense_1_Structure.c **** }
 364:Generated_Source\PSoC6/CapSense_1_Structure.c **** 
 365:Generated_Source\PSoC6/CapSense_1_Structure.c **** 
 366:Generated_Source\PSoC6/CapSense_1_Structure.c **** #if (0u != CapSense_1_ADC_EN)
 367:Generated_Source\PSoC6/CapSense_1_Structure.c ****     /*******************************************************************************
 368:Generated_Source\PSoC6/CapSense_1_Structure.c ****     * Function Name: CapSense_1_AdcDsInitialize
 369:Generated_Source\PSoC6/CapSense_1_Structure.c ****     ****************************************************************************//**
 370:Generated_Source\PSoC6/CapSense_1_Structure.c ****     *
 371:Generated_Source\PSoC6/CapSense_1_Structure.c ****     * \brief
 372:Generated_Source\PSoC6/CapSense_1_Structure.c ****     *   Configures the initial Adc datastructure members.
ARM GAS  C:\Users\Bryce\AppData\Local\Temp\ccLuOGF3.s 			page 8


 373:Generated_Source\PSoC6/CapSense_1_Structure.c ****     *
 374:Generated_Source\PSoC6/CapSense_1_Structure.c ****     *******************************************************************************/
 375:Generated_Source\PSoC6/CapSense_1_Structure.c ****     void CapSense_1_AdcDsInitialize(void)
 376:Generated_Source\PSoC6/CapSense_1_Structure.c ****     {
 377:Generated_Source\PSoC6/CapSense_1_Structure.c ****         CapSense_1_dsRam.adcResolution = CapSense_1_ADC_RESOLUTION;
 378:Generated_Source\PSoC6/CapSense_1_Structure.c ****         CapSense_1_dsRam.adcIdac = (uint8)(CapSense_1_ADC_IDAC_DEFAULT);
 379:Generated_Source\PSoC6/CapSense_1_Structure.c ****         CapSense_1_dsRam.adcActiveCh = CapSense_1_AdcNO_CHANNEL;
 380:Generated_Source\PSoC6/CapSense_1_Structure.c ****     }
 381:Generated_Source\PSoC6/CapSense_1_Structure.c **** #endif /* (0u != CapSense_1_ADC_EN) */
 382:Generated_Source\PSoC6/CapSense_1_Structure.c **** 
 383:Generated_Source\PSoC6/CapSense_1_Structure.c **** 
 384:Generated_Source\PSoC6/CapSense_1_Structure.c **** /*******************************************************************************
 385:Generated_Source\PSoC6/CapSense_1_Structure.c **** * Function Name: DsParseParamId
 386:Generated_Source\PSoC6/CapSense_1_Structure.c **** ****************************************************************************//**
 387:Generated_Source\PSoC6/CapSense_1_Structure.c **** *
 388:Generated_Source\PSoC6/CapSense_1_Structure.c **** * \brief
 389:Generated_Source\PSoC6/CapSense_1_Structure.c **** *   This function parses the parameter ID and checks its correctness.
 390:Generated_Source\PSoC6/CapSense_1_Structure.c **** *
 391:Generated_Source\PSoC6/CapSense_1_Structure.c **** * \details
 392:Generated_Source\PSoC6/CapSense_1_Structure.c **** *   This function checks the parameter CRC if the self-test is enabled,
 393:Generated_Source\PSoC6/CapSense_1_Structure.c **** *   validates the offset value and parameter type.
 394:Generated_Source\PSoC6/CapSense_1_Structure.c **** *
 395:Generated_Source\PSoC6/CapSense_1_Structure.c **** * \param paramId The parameter to parse.
 396:Generated_Source\PSoC6/CapSense_1_Structure.c **** * \param pData   The pointer to the structure that will hold parsed data.
 397:Generated_Source\PSoC6/CapSense_1_Structure.c **** *
 398:Generated_Source\PSoC6/CapSense_1_Structure.c **** * \return CY_RET_SUCCESS     If the parameter is valid
 399:Generated_Source\PSoC6/CapSense_1_Structure.c **** *         CY_RET_BAD_PARAM   If  the parameter is invalid
 400:Generated_Source\PSoC6/CapSense_1_Structure.c **** *
 401:Generated_Source\PSoC6/CapSense_1_Structure.c **** *******************************************************************************/
 402:Generated_Source\PSoC6/CapSense_1_Structure.c **** static cy_status DsParseParamId(uint32 paramId, PARAM_ID_STRUCT *pData)
 403:Generated_Source\PSoC6/CapSense_1_Structure.c **** {
  28              		.loc 1 403 0
  29              		.cfi_startproc
  30              		@ args = 0, pretend = 0, frame = 0
  31              		@ frame_needed = 0, uses_anonymous_args = 0
  32              		@ link register save eliminated.
  33              	.LVL0:
  34 0000 30B4     		push	{r4, r5}
  35              		.cfi_def_cfa_offset 8
  36              		.cfi_offset 4, -8
  37              		.cfi_offset 5, -4
  38              	.LVL1:
 404:Generated_Source\PSoC6/CapSense_1_Structure.c ****     cy_status result = CY_RET_SUCCESS;
 405:Generated_Source\PSoC6/CapSense_1_Structure.c **** 
 406:Generated_Source\PSoC6/CapSense_1_Structure.c ****     #if (0u != CapSense_1_SELF_TEST_EN)
 407:Generated_Source\PSoC6/CapSense_1_Structure.c ****         const uint8 crcTable[] =
 408:Generated_Source\PSoC6/CapSense_1_Structure.c ****         {
 409:Generated_Source\PSoC6/CapSense_1_Structure.c ****             0x00u, 0x09u, 0x0Bu, 0x02u, 0x0Fu, 0x06u, 0x04u, 0x0Du,
 410:Generated_Source\PSoC6/CapSense_1_Structure.c ****             0x07u, 0x0Eu, 0x0Cu, 0x05u, 0x08u, 0x01u, 0x03u, 0x0Au
 411:Generated_Source\PSoC6/CapSense_1_Structure.c ****         };
 412:Generated_Source\PSoC6/CapSense_1_Structure.c **** 
 413:Generated_Source\PSoC6/CapSense_1_Structure.c ****         uint32 i;
 414:Generated_Source\PSoC6/CapSense_1_Structure.c ****         uint32 actualCrc = 0u;
 415:Generated_Source\PSoC6/CapSense_1_Structure.c ****         uint32 crcIndex;
 416:Generated_Source\PSoC6/CapSense_1_Structure.c ****     #endif /* #if (0u != CapSense_1_SELF_TEST_EN) */
 417:Generated_Source\PSoC6/CapSense_1_Structure.c **** 
 418:Generated_Source\PSoC6/CapSense_1_Structure.c ****     /* Extract parameter data */
ARM GAS  C:\Users\Bryce\AppData\Local\Temp\ccLuOGF3.s 			page 9


 419:Generated_Source\PSoC6/CapSense_1_Structure.c ****     pData->offset     = CY_LO16(paramId);
  39              		.loc 1 419 0
  40 0002 82B2     		uxth	r2, r0
  41 0004 0A80     		strh	r2, [r1]	@ movhi
 420:Generated_Source\PSoC6/CapSense_1_Structure.c ****     pData->affectsCrc = CY_LO8((paramId & PARAM_UBIT_MASK)  >> PARAM_UBIT_OFFSET);
  42              		.loc 1 420 0
  43 0006 C0F3C053 		ubfx	r3, r0, #23, #1
  44 000a CB70     		strb	r3, [r1, #3]
 421:Generated_Source\PSoC6/CapSense_1_Structure.c ****     pData->widgetId   = CY_LO8((paramId & PARAM_WDID_MASK)  >> PARAM_WDID_OFFSET);
  45              		.loc 1 421 0
  46 000c C0F30643 		ubfx	r3, r0, #16, #7
  47 0010 8B70     		strb	r3, [r1, #2]
 422:Generated_Source\PSoC6/CapSense_1_Structure.c ****     pData->type       = CY_LO8((paramId & PARAM_TYPE_MASK)  >> PARAM_TYPE_OFFSET);
  48              		.loc 1 422 0
  49 0012 830F     		lsrs	r3, r0, #30
  50 0014 CB71     		strb	r3, [r1, #7]
 423:Generated_Source\PSoC6/CapSense_1_Structure.c ****     pData->flash      = CY_LO8((paramId & PARAM_FBIT_MASK)  >> PARAM_FBIT_OFFSET);
  51              		.loc 1 423 0
  52 0016 C0F30074 		ubfx	r4, r0, #28, #1
  53 001a 4C71     		strb	r4, [r1, #5]
 424:Generated_Source\PSoC6/CapSense_1_Structure.c ****     pData->rw         = CY_LO8((paramId & PARAM_RWBIT_MASK) >> PARAM_RWBIT_OFFSET);
  54              		.loc 1 424 0
  55 001c C0F34075 		ubfx	r5, r0, #29, #1
  56 0020 8D71     		strb	r5, [r1, #6]
 425:Generated_Source\PSoC6/CapSense_1_Structure.c ****     pData->crc        = CY_LO8((paramId & PARAM_CRC_MASK)   >> PARAM_CRC_OFFSET);
  57              		.loc 1 425 0
  58 0022 C0F30360 		ubfx	r0, r0, #24, #4
  59              	.LVL2:
  60 0026 0871     		strb	r0, [r1, #4]
 426:Generated_Source\PSoC6/CapSense_1_Structure.c **** 
 427:Generated_Source\PSoC6/CapSense_1_Structure.c ****     /* Check parameter CRC if self-test is enabled */
 428:Generated_Source\PSoC6/CapSense_1_Structure.c ****     #if (0u != CapSense_1_SELF_TEST_EN)
 429:Generated_Source\PSoC6/CapSense_1_Structure.c **** 
 430:Generated_Source\PSoC6/CapSense_1_Structure.c ****         /* Calculate CRC for bits 0..24.
 431:Generated_Source\PSoC6/CapSense_1_Structure.c ****          * The CRC is calculated using nibbles (4-bits).
 432:Generated_Source\PSoC6/CapSense_1_Structure.c ****          * So for 0..24 bits there are in total 6 nibbles. */
 433:Generated_Source\PSoC6/CapSense_1_Structure.c ****         for (i = 6u; i > 0u; i--)
 434:Generated_Source\PSoC6/CapSense_1_Structure.c ****         {
 435:Generated_Source\PSoC6/CapSense_1_Structure.c ****             crcIndex = actualCrc ^ (paramId & 0x0Fu);
 436:Generated_Source\PSoC6/CapSense_1_Structure.c ****             actualCrc = crcTable[crcIndex];
 437:Generated_Source\PSoC6/CapSense_1_Structure.c ****             paramId >>= 4u;
 438:Generated_Source\PSoC6/CapSense_1_Structure.c ****         }
 439:Generated_Source\PSoC6/CapSense_1_Structure.c **** 
 440:Generated_Source\PSoC6/CapSense_1_Structure.c ****         /* Add bits 28..32 */
 441:Generated_Source\PSoC6/CapSense_1_Structure.c ****         crcIndex = actualCrc ^ ((paramId >> 4u) & 0x0Fu);
 442:Generated_Source\PSoC6/CapSense_1_Structure.c ****         actualCrc = crcTable[crcIndex];
 443:Generated_Source\PSoC6/CapSense_1_Structure.c **** 
 444:Generated_Source\PSoC6/CapSense_1_Structure.c ****         /* Add bits 24..28 (CRC) */
 445:Generated_Source\PSoC6/CapSense_1_Structure.c ****         crcIndex = actualCrc ^ (paramId & 0x0Fu);
 446:Generated_Source\PSoC6/CapSense_1_Structure.c ****         actualCrc = crcTable[crcIndex];
 447:Generated_Source\PSoC6/CapSense_1_Structure.c **** 
 448:Generated_Source\PSoC6/CapSense_1_Structure.c ****         if (0u != actualCrc)
 449:Generated_Source\PSoC6/CapSense_1_Structure.c ****         {
 450:Generated_Source\PSoC6/CapSense_1_Structure.c ****             /* CRC mismatch */
 451:Generated_Source\PSoC6/CapSense_1_Structure.c ****             result = CY_RET_BAD_PARAM;
 452:Generated_Source\PSoC6/CapSense_1_Structure.c ****         }
 453:Generated_Source\PSoC6/CapSense_1_Structure.c **** 
ARM GAS  C:\Users\Bryce\AppData\Local\Temp\ccLuOGF3.s 			page 10


 454:Generated_Source\PSoC6/CapSense_1_Structure.c ****         if ((CY_RET_SUCCESS == result) &&
 455:Generated_Source\PSoC6/CapSense_1_Structure.c ****             (0u != pData->affectsCrc) && (pData->widgetId >= CapSense_1_TOTAL_WIDGETS ))
 456:Generated_Source\PSoC6/CapSense_1_Structure.c ****         {
 457:Generated_Source\PSoC6/CapSense_1_Structure.c ****             /* Wrong widgetId for protected parameter */
 458:Generated_Source\PSoC6/CapSense_1_Structure.c ****             result = CY_RET_BAD_PARAM;
 459:Generated_Source\PSoC6/CapSense_1_Structure.c ****         }
 460:Generated_Source\PSoC6/CapSense_1_Structure.c **** 
 461:Generated_Source\PSoC6/CapSense_1_Structure.c ****         /* Check offset value range */
 462:Generated_Source\PSoC6/CapSense_1_Structure.c ****         if (CY_RET_SUCCESS == result)
 463:Generated_Source\PSoC6/CapSense_1_Structure.c ****         {
 464:Generated_Source\PSoC6/CapSense_1_Structure.c ****             if (0u == pData->flash)
 465:Generated_Source\PSoC6/CapSense_1_Structure.c ****             {
 466:Generated_Source\PSoC6/CapSense_1_Structure.c ****                 /* Check offset for RAM Data Structure range */
 467:Generated_Source\PSoC6/CapSense_1_Structure.c ****                 if (pData->offset >= sizeof(CapSense_1_dsRam))
 468:Generated_Source\PSoC6/CapSense_1_Structure.c ****                 {
 469:Generated_Source\PSoC6/CapSense_1_Structure.c ****                     result = CY_RET_BAD_PARAM;
 470:Generated_Source\PSoC6/CapSense_1_Structure.c ****                 }
 471:Generated_Source\PSoC6/CapSense_1_Structure.c ****             }
 472:Generated_Source\PSoC6/CapSense_1_Structure.c ****             else
 473:Generated_Source\PSoC6/CapSense_1_Structure.c ****             {
 474:Generated_Source\PSoC6/CapSense_1_Structure.c ****                 /* Check offset for Flash Data Structure range */
 475:Generated_Source\PSoC6/CapSense_1_Structure.c ****                 if (pData->offset >= sizeof(CapSense_1_dsFlash))
 476:Generated_Source\PSoC6/CapSense_1_Structure.c ****                 {
 477:Generated_Source\PSoC6/CapSense_1_Structure.c ****                     result = CY_RET_BAD_PARAM;
 478:Generated_Source\PSoC6/CapSense_1_Structure.c ****                 }
 479:Generated_Source\PSoC6/CapSense_1_Structure.c **** 
 480:Generated_Source\PSoC6/CapSense_1_Structure.c ****                 /* Check if it is marked as Read Only */
 481:Generated_Source\PSoC6/CapSense_1_Structure.c ****                 if (0u != pData->rw)
 482:Generated_Source\PSoC6/CapSense_1_Structure.c ****                 {
 483:Generated_Source\PSoC6/CapSense_1_Structure.c ****                     result = CY_RET_BAD_PARAM;
 484:Generated_Source\PSoC6/CapSense_1_Structure.c ****                 }
 485:Generated_Source\PSoC6/CapSense_1_Structure.c ****             }
 486:Generated_Source\PSoC6/CapSense_1_Structure.c ****         }
 487:Generated_Source\PSoC6/CapSense_1_Structure.c ****     #else /* #if (0u != CapSense_1_SELF_TEST_EN) */
 488:Generated_Source\PSoC6/CapSense_1_Structure.c ****         /* Check offset value range */
 489:Generated_Source\PSoC6/CapSense_1_Structure.c ****         if (0u == pData->flash)
  61              		.loc 1 489 0
  62 0028 1CB9     		cbnz	r4, .L2
 490:Generated_Source\PSoC6/CapSense_1_Structure.c ****         {
 491:Generated_Source\PSoC6/CapSense_1_Structure.c ****             /* Check offset for RAM Data Structure range */
 492:Generated_Source\PSoC6/CapSense_1_Structure.c ****             if (pData->offset >= sizeof(CapSense_1_dsRam))
  63              		.loc 1 492 0
  64 002a 3F2A     		cmp	r2, #63
  65 002c 08D8     		bhi	.L9
 404:Generated_Source\PSoC6/CapSense_1_Structure.c **** 
  66              		.loc 1 404 0
  67 002e 0020     		movs	r0, #0
  68 0030 09E0     		b	.L3
  69              	.L2:
 493:Generated_Source\PSoC6/CapSense_1_Structure.c ****             {
 494:Generated_Source\PSoC6/CapSense_1_Structure.c ****                 result = CY_RET_BAD_PARAM;
 495:Generated_Source\PSoC6/CapSense_1_Structure.c ****             }
 496:Generated_Source\PSoC6/CapSense_1_Structure.c ****         }
 497:Generated_Source\PSoC6/CapSense_1_Structure.c ****         else
 498:Generated_Source\PSoC6/CapSense_1_Structure.c ****         {
 499:Generated_Source\PSoC6/CapSense_1_Structure.c ****             /* Check offset for Flash Data Structure range */
 500:Generated_Source\PSoC6/CapSense_1_Structure.c ****             if (pData->offset >= sizeof(CapSense_1_dsFlash))
ARM GAS  C:\Users\Bryce\AppData\Local\Temp\ccLuOGF3.s 			page 11


  70              		.loc 1 500 0
  71 0032 1F2A     		cmp	r2, #31
  72 0034 01D8     		bhi	.L10
 404:Generated_Source\PSoC6/CapSense_1_Structure.c **** 
  73              		.loc 1 404 0
  74 0036 0020     		movs	r0, #0
  75 0038 00E0     		b	.L4
  76              	.L10:
 501:Generated_Source\PSoC6/CapSense_1_Structure.c ****             {
 502:Generated_Source\PSoC6/CapSense_1_Structure.c ****                 result = CY_RET_BAD_PARAM;
  77              		.loc 1 502 0
  78 003a 0120     		movs	r0, #1
  79              	.L4:
  80              	.LVL3:
 503:Generated_Source\PSoC6/CapSense_1_Structure.c ****             }
 504:Generated_Source\PSoC6/CapSense_1_Structure.c **** 
 505:Generated_Source\PSoC6/CapSense_1_Structure.c ****             /* Check if it is marked as Read Only */
 506:Generated_Source\PSoC6/CapSense_1_Structure.c ****             if (0u != pData->rw)
  81              		.loc 1 506 0
  82 003c 15B9     		cbnz	r5, .L11
  83 003e 02E0     		b	.L3
  84              	.LVL4:
  85              	.L9:
 494:Generated_Source\PSoC6/CapSense_1_Structure.c ****             }
  86              		.loc 1 494 0
  87 0040 0120     		movs	r0, #1
  88 0042 00E0     		b	.L3
  89              	.LVL5:
  90              	.L11:
 507:Generated_Source\PSoC6/CapSense_1_Structure.c ****             {
 508:Generated_Source\PSoC6/CapSense_1_Structure.c ****                 result = CY_RET_BAD_PARAM;
  91              		.loc 1 508 0
  92 0044 0120     		movs	r0, #1
  93              	.LVL6:
  94              	.L3:
 509:Generated_Source\PSoC6/CapSense_1_Structure.c ****             }
 510:Generated_Source\PSoC6/CapSense_1_Structure.c ****         }
 511:Generated_Source\PSoC6/CapSense_1_Structure.c ****     #endif /* #if (0u != CapSense_1_SELF_TEST_EN) */
 512:Generated_Source\PSoC6/CapSense_1_Structure.c **** 
 513:Generated_Source\PSoC6/CapSense_1_Structure.c ****     if (CY_RET_SUCCESS == result)
  95              		.loc 1 513 0
  96 0046 98B9     		cbnz	r0, .L5
 514:Generated_Source\PSoC6/CapSense_1_Structure.c ****     {
 515:Generated_Source\PSoC6/CapSense_1_Structure.c ****         /* Check parameter type, offset alignment */
 516:Generated_Source\PSoC6/CapSense_1_Structure.c ****         switch (pData->type)
  97              		.loc 1 516 0
  98 0048 022B     		cmp	r3, #2
  99 004a 04D0     		beq	.L6
 100 004c 032B     		cmp	r3, #3
 101 004e 06D0     		beq	.L7
 102 0050 012B     		cmp	r3, #1
 103 0052 08D1     		bne	.L15
 104 0054 0CE0     		b	.L5
 105              	.L6:
 517:Generated_Source\PSoC6/CapSense_1_Structure.c ****         {
 518:Generated_Source\PSoC6/CapSense_1_Structure.c ****         case DS_PARAM_TYPE_UINT16:
 519:Generated_Source\PSoC6/CapSense_1_Structure.c ****             if (0u != (pData->offset & UINT16_ALIGN_MASK))
ARM GAS  C:\Users\Bryce\AppData\Local\Temp\ccLuOGF3.s 			page 12


 106              		.loc 1 519 0
 107 0056 12F0010F 		tst	r2, #1
 108 005a 06D1     		bne	.L13
 109 005c 08E0     		b	.L5
 110              	.L7:
 520:Generated_Source\PSoC6/CapSense_1_Structure.c ****             {
 521:Generated_Source\PSoC6/CapSense_1_Structure.c ****                 result = CY_RET_BAD_PARAM;
 522:Generated_Source\PSoC6/CapSense_1_Structure.c ****             }
 523:Generated_Source\PSoC6/CapSense_1_Structure.c ****             break;
 524:Generated_Source\PSoC6/CapSense_1_Structure.c **** 
 525:Generated_Source\PSoC6/CapSense_1_Structure.c ****         case DS_PARAM_TYPE_UINT32:
 526:Generated_Source\PSoC6/CapSense_1_Structure.c ****             if (0u != (pData->offset & UINT32_ALIGN_MASK))
 111              		.loc 1 526 0
 112 005e 12F0030F 		tst	r2, #3
 113 0062 04D1     		bne	.L14
 114 0064 04E0     		b	.L5
 115              	.L15:
 527:Generated_Source\PSoC6/CapSense_1_Structure.c ****             {
 528:Generated_Source\PSoC6/CapSense_1_Structure.c ****                 result = CY_RET_BAD_PARAM;
 529:Generated_Source\PSoC6/CapSense_1_Structure.c ****             }
 530:Generated_Source\PSoC6/CapSense_1_Structure.c ****             break;
 531:Generated_Source\PSoC6/CapSense_1_Structure.c **** 
 532:Generated_Source\PSoC6/CapSense_1_Structure.c ****         case DS_PARAM_TYPE_UINT8:
 533:Generated_Source\PSoC6/CapSense_1_Structure.c ****             break;
 534:Generated_Source\PSoC6/CapSense_1_Structure.c **** 
 535:Generated_Source\PSoC6/CapSense_1_Structure.c ****         default:
 536:Generated_Source\PSoC6/CapSense_1_Structure.c ****             result = CY_RET_BAD_PARAM;
 116              		.loc 1 536 0
 117 0066 0120     		movs	r0, #1
 118              	.LVL7:
 119 0068 02E0     		b	.L5
 120              	.LVL8:
 121              	.L13:
 521:Generated_Source\PSoC6/CapSense_1_Structure.c ****             }
 122              		.loc 1 521 0
 123 006a 0120     		movs	r0, #1
 124              	.LVL9:
 125 006c 00E0     		b	.L5
 126              	.LVL10:
 127              	.L14:
 528:Generated_Source\PSoC6/CapSense_1_Structure.c ****             }
 128              		.loc 1 528 0
 129 006e 0120     		movs	r0, #1
 130              	.LVL11:
 131              	.L5:
 537:Generated_Source\PSoC6/CapSense_1_Structure.c ****             break;
 538:Generated_Source\PSoC6/CapSense_1_Structure.c ****         }
 539:Generated_Source\PSoC6/CapSense_1_Structure.c ****     }
 540:Generated_Source\PSoC6/CapSense_1_Structure.c **** 
 541:Generated_Source\PSoC6/CapSense_1_Structure.c ****     return result;
 542:Generated_Source\PSoC6/CapSense_1_Structure.c **** }
 132              		.loc 1 542 0
 133 0070 30BC     		pop	{r4, r5}
 134              		.cfi_restore 5
 135              		.cfi_restore 4
 136              		.cfi_def_cfa_offset 0
 137 0072 7047     		bx	lr
ARM GAS  C:\Users\Bryce\AppData\Local\Temp\ccLuOGF3.s 			page 13


 138              		.cfi_endproc
 139              	.LFE133:
 140              		.size	DsParseParamId, .-DsParseParamId
 141              		.section	.text.CapSense_1_DsInitialize,"ax",%progbits
 142              		.align	2
 143              		.global	CapSense_1_DsInitialize
 144              		.thumb
 145              		.thumb_func
 146              		.type	CapSense_1_DsInitialize, %function
 147              	CapSense_1_DsInitialize:
 148              	.LFB132:
 241:Generated_Source\PSoC6/CapSense_1_Structure.c ****     #if ((CapSense_1_ENABLE == CapSense_1_CSX_EN) || \
 149              		.loc 1 241 0
 150              		.cfi_startproc
 151              		@ args = 0, pretend = 0, frame = 0
 152              		@ frame_needed = 0, uses_anonymous_args = 0
 153 0000 F8B5     		push	{r3, r4, r5, r6, r7, lr}
 154              		.cfi_def_cfa_offset 24
 155              		.cfi_offset 3, -24
 156              		.cfi_offset 4, -20
 157              		.cfi_offset 5, -16
 158              		.cfi_offset 6, -12
 159              		.cfi_offset 7, -8
 160              		.cfi_offset 14, -4
 161              	.LVL12:
 262:Generated_Source\PSoC6/CapSense_1_Structure.c **** 
 162              		.loc 1 262 0
 163 0002 1C4E     		ldr	r6, .L23
 164 0004 4022     		movs	r2, #64
 165 0006 0021     		movs	r1, #0
 166 0008 3046     		mov	r0, r6
 167 000a FFF7FEFF 		bl	memset
 168              	.LVL13:
 265:Generated_Source\PSoC6/CapSense_1_Structure.c ****     CapSense_1_dsRam.deviceId = CapSense_1_DEVICE_ID;
 169              		.loc 1 265 0
 170 000e 40F29443 		movw	r3, #1172
 171 0012 3380     		strh	r3, [r6]	@ movhi
 266:Generated_Source\PSoC6/CapSense_1_Structure.c ****     CapSense_1_dsRam.hwClock = CapSense_1_HW_CLOCK;
 172              		.loc 1 266 0
 173 0014 4FF41063 		mov	r3, #2304
 174 0018 7380     		strh	r3, [r6, #2]	@ movhi
 267:Generated_Source\PSoC6/CapSense_1_Structure.c **** 
 175              		.loc 1 267 0
 176 001a 41F66A03 		movw	r3, #6250
 177 001e B380     		strh	r3, [r6, #4]	@ movhi
 270:Generated_Source\PSoC6/CapSense_1_Structure.c **** 
 178              		.loc 1 270 0
 179 0020 0823     		movs	r3, #8
 180 0022 7383     		strh	r3, [r6, #26]	@ movhi
 273:Generated_Source\PSoC6/CapSense_1_Structure.c **** 
 181              		.loc 1 273 0
 182 0024 0124     		movs	r4, #1
 183 0026 3477     		strb	r4, [r6, #28]
 293:Generated_Source\PSoC6/CapSense_1_Structure.c **** 
 184              		.loc 1 293 0
 185 0028 134D     		ldr	r5, .L23+4
 186 002a 06F11E0E 		add	lr, r6, #30
ARM GAS  C:\Users\Bryce\AppData\Local\Temp\ccLuOGF3.s 			page 14


 187 002e 05F12407 		add	r7, r5, #36
 188 0032 0FCF     		ldmia	r7!, {r0, r1, r2, r3}
 189 0034 C6F81E00 		str	r0, [r6, #30]	@ unaligned
 190 0038 C6F82210 		str	r1, [r6, #34]	@ unaligned
 191 003c C6F82620 		str	r2, [r6, #38]	@ unaligned
 192 0040 C6F82A30 		str	r3, [r6, #42]	@ unaligned
 193 0044 3B88     		ldrh	r3, [r7]	@ unaligned
 194 0046 F385     		strh	r3, [r6, #46]	@ unaligned
 195              	.LVL14:
 258:Generated_Source\PSoC6/CapSense_1_Structure.c ****     #endif
 196              		.loc 1 258 0
 197 0048 2946     		mov	r1, r5
 310:Generated_Source\PSoC6/CapSense_1_Structure.c **** 
 198              		.loc 1 310 0
 199 004a 0435     		adds	r5, r5, #4
 312:Generated_Source\PSoC6/CapSense_1_Structure.c ****         {
 200              		.loc 1 312 0
 201 004c 2346     		mov	r3, r4
 202 004e 0CE0     		b	.L18
 203              	.LVL15:
 204              	.L21:
 314:Generated_Source\PSoC6/CapSense_1_Structure.c **** 
 205              		.loc 1 314 0
 206 0050 AA68     		ldr	r2, [r5, #8]
 207              	.LVL16:
 316:Generated_Source\PSoC6/CapSense_1_Structure.c ****             {
 208              		.loc 1 316 0
 209 0052 2B8B     		ldrh	r3, [r5, #24]
 210              	.LVL17:
 211 0054 04E0     		b	.L19
 212              	.LVL18:
 213              	.L20:
 318:Generated_Source\PSoC6/CapSense_1_Structure.c ****                 ptrIdacInit++;
 214              		.loc 1 318 0
 215 0056 11F8013B 		ldrb	r3, [r1], #1	@ zero_extendqisi2
 216              	.LVL19:
 217 005a 5372     		strb	r3, [r2, #9]
 218              	.LVL20:
 329:Generated_Source\PSoC6/CapSense_1_Structure.c ****             }
 219              		.loc 1 329 0
 220 005c 0A32     		adds	r2, r2, #10
 221              	.LVL21:
 316:Generated_Source\PSoC6/CapSense_1_Structure.c ****             {
 222              		.loc 1 316 0
 223 005e 0346     		mov	r3, r0
 224              	.LVL22:
 225              	.L19:
 316:Generated_Source\PSoC6/CapSense_1_Structure.c ****             {
 226              		.loc 1 316 0 is_stmt 0 discriminator 1
 227 0060 581E     		subs	r0, r3, #1
 228              	.LVL23:
 229 0062 002B     		cmp	r3, #0
 230 0064 F7D1     		bne	.L20
 332:Generated_Source\PSoC6/CapSense_1_Structure.c ****         }
 231              		.loc 1 332 0 is_stmt 1
 232 0066 2035     		adds	r5, r5, #32
 233              	.LVL24:
ARM GAS  C:\Users\Bryce\AppData\Local\Temp\ccLuOGF3.s 			page 15


 312:Generated_Source\PSoC6/CapSense_1_Structure.c ****         {
 234              		.loc 1 312 0
 235 0068 2346     		mov	r3, r4
 236              	.LVL25:
 237              	.L18:
 312:Generated_Source\PSoC6/CapSense_1_Structure.c ****         {
 238              		.loc 1 312 0 is_stmt 0 discriminator 1
 239 006a 5C1E     		subs	r4, r3, #1
 240              	.LVL26:
 241 006c 002B     		cmp	r3, #0
 242 006e EFD1     		bne	.L21
 363:Generated_Source\PSoC6/CapSense_1_Structure.c **** 
 243              		.loc 1 363 0 is_stmt 1
 244 0070 F8BD     		pop	{r3, r4, r5, r6, r7, pc}
 245              	.LVL27:
 246              	.L24:
 247 0072 00BF     		.align	2
 248              	.L23:
 249 0074 00000000 		.word	CapSense_1_dsRam
 250 0078 00000000 		.word	.LANCHOR0
 251              		.cfi_endproc
 252              	.LFE132:
 253              		.size	CapSense_1_DsInitialize, .-CapSense_1_DsInitialize
 254              		.section	.text.CapSense_1_GetParam,"ax",%progbits
 255              		.align	2
 256              		.global	CapSense_1_GetParam
 257              		.thumb
 258              		.thumb_func
 259              		.type	CapSense_1_GetParam, %function
 260              	CapSense_1_GetParam:
 261              	.LFB134:
 543:Generated_Source\PSoC6/CapSense_1_Structure.c **** 
 544:Generated_Source\PSoC6/CapSense_1_Structure.c **** /*******************************************************************************
 545:Generated_Source\PSoC6/CapSense_1_Structure.c **** * Function Name: CapSense_1_GetParam
 546:Generated_Source\PSoC6/CapSense_1_Structure.c **** ****************************************************************************//**
 547:Generated_Source\PSoC6/CapSense_1_Structure.c **** *
 548:Generated_Source\PSoC6/CapSense_1_Structure.c **** * \brief
 549:Generated_Source\PSoC6/CapSense_1_Structure.c **** *  Gets the specified parameter value from the \ref group_structures.
 550:Generated_Source\PSoC6/CapSense_1_Structure.c **** *
 551:Generated_Source\PSoC6/CapSense_1_Structure.c **** * \details
 552:Generated_Source\PSoC6/CapSense_1_Structure.c **** *  This function gets the value of the specified parameter by the paramId
 553:Generated_Source\PSoC6/CapSense_1_Structure.c **** *  argument. The paramId for each register is available in the
 554:Generated_Source\PSoC6/CapSense_1_Structure.c **** *  CapSense_1 RegisterMap header file as
 555:Generated_Source\PSoC6/CapSense_1_Structure.c **** *  CapSense_1_<ParameterName>_PARAM_ID. The paramId is a special
 556:Generated_Source\PSoC6/CapSense_1_Structure.c **** *  enumerated value generated by the customizer. The format of paramId is as
 557:Generated_Source\PSoC6/CapSense_1_Structure.c **** *  follows:
 558:Generated_Source\PSoC6/CapSense_1_Structure.c **** *    1. [ byte 3 byte 2 byte 1 byte 0 ]
 559:Generated_Source\PSoC6/CapSense_1_Structure.c **** *    2. [ TTWFCCCC UIIIIIII MMMMMMMM LLLLLLLL ]
 560:Generated_Source\PSoC6/CapSense_1_Structure.c **** *    3. T - encodes the parameter type:
 561:Generated_Source\PSoC6/CapSense_1_Structure.c **** *      - 01b: uint8
 562:Generated_Source\PSoC6/CapSense_1_Structure.c **** *      - 10b: uint16
 563:Generated_Source\PSoC6/CapSense_1_Structure.c **** *      - 11b: uint32
 564:Generated_Source\PSoC6/CapSense_1_Structure.c **** *    4. W - indicates whether the parameter is writable:
 565:Generated_Source\PSoC6/CapSense_1_Structure.c **** *      - 0: ReadOnly
 566:Generated_Source\PSoC6/CapSense_1_Structure.c **** *      - 1: Read/Write
 567:Generated_Source\PSoC6/CapSense_1_Structure.c **** *    5. C - 4 bit CRC (X^3 + 1) of the whole paramId word, the C bits are
 568:Generated_Source\PSoC6/CapSense_1_Structure.c **** *       filled with 0s when the CRC is calculated.
ARM GAS  C:\Users\Bryce\AppData\Local\Temp\ccLuOGF3.s 			page 16


 569:Generated_Source\PSoC6/CapSense_1_Structure.c **** *    6. U - indicates if the parameter affects the RAM Widget Object CRC.
 570:Generated_Source\PSoC6/CapSense_1_Structure.c **** *    7. I - specifies that the widgetId parameter belongs to
 571:Generated_Source\PSoC6/CapSense_1_Structure.c **** *    8. M,L - the parameter offset MSB and LSB accordingly in:
 572:Generated_Source\PSoC6/CapSense_1_Structure.c **** *      - Flash Data Structure if W bit is 0.
 573:Generated_Source\PSoC6/CapSense_1_Structure.c **** *      - RAM Data Structure if W bit is 1.
 574:Generated_Source\PSoC6/CapSense_1_Structure.c **** *
 575:Generated_Source\PSoC6/CapSense_1_Structure.c **** *  Refer to the \ref group_structures section for details of the data structure
 576:Generated_Source\PSoC6/CapSense_1_Structure.c **** *  organization and examples of its register access.
 577:Generated_Source\PSoC6/CapSense_1_Structure.c **** *
 578:Generated_Source\PSoC6/CapSense_1_Structure.c **** * \param paramId
 579:Generated_Source\PSoC6/CapSense_1_Structure.c **** *  Specifies the ID of parameter to get its value.
 580:Generated_Source\PSoC6/CapSense_1_Structure.c **** *  A macro for the parameter ID can be found in the CapSense_1 RegisterMap header
 581:Generated_Source\PSoC6/CapSense_1_Structure.c **** *  file defined as CapSense_1_<ParameterName>_PARAM_ID.
 582:Generated_Source\PSoC6/CapSense_1_Structure.c **** *
 583:Generated_Source\PSoC6/CapSense_1_Structure.c **** * \param  value
 584:Generated_Source\PSoC6/CapSense_1_Structure.c **** *  The pointer to a variable to be updated with the obtained value.
 585:Generated_Source\PSoC6/CapSense_1_Structure.c **** *
 586:Generated_Source\PSoC6/CapSense_1_Structure.c **** * \return
 587:Generated_Source\PSoC6/CapSense_1_Structure.c **** *  Returns the status of the operation:
 588:Generated_Source\PSoC6/CapSense_1_Structure.c **** *    - CY_RET_SUCCESS - The operation is successfully completed.
 589:Generated_Source\PSoC6/CapSense_1_Structure.c **** *    - CY_RET_BAD_PARAM - The input parameter is invalid.
 590:Generated_Source\PSoC6/CapSense_1_Structure.c **** *
 591:Generated_Source\PSoC6/CapSense_1_Structure.c **** *******************************************************************************/
 592:Generated_Source\PSoC6/CapSense_1_Structure.c **** cy_status CapSense_1_GetParam(uint32 paramId, uint32 *value)
 593:Generated_Source\PSoC6/CapSense_1_Structure.c **** {
 262              		.loc 1 593 0
 263              		.cfi_startproc
 264              		@ args = 0, pretend = 0, frame = 8
 265              		@ frame_needed = 0, uses_anonymous_args = 0
 266              	.LVL28:
 267 0000 30B5     		push	{r4, r5, lr}
 268              		.cfi_def_cfa_offset 12
 269              		.cfi_offset 4, -12
 270              		.cfi_offset 5, -8
 271              		.cfi_offset 14, -4
 272 0002 83B0     		sub	sp, sp, #12
 273              		.cfi_def_cfa_offset 24
 274 0004 0D46     		mov	r5, r1
 594:Generated_Source\PSoC6/CapSense_1_Structure.c ****     PARAM_ID_STRUCT pData;
 595:Generated_Source\PSoC6/CapSense_1_Structure.c ****     cy_status result;
 596:Generated_Source\PSoC6/CapSense_1_Structure.c **** 
 597:Generated_Source\PSoC6/CapSense_1_Structure.c ****     union
 598:Generated_Source\PSoC6/CapSense_1_Structure.c ****     {
 599:Generated_Source\PSoC6/CapSense_1_Structure.c ****         volatile void   const * ptr;
 600:Generated_Source\PSoC6/CapSense_1_Structure.c ****         volatile uint8  const * ptrUint8;
 601:Generated_Source\PSoC6/CapSense_1_Structure.c ****         volatile uint16 const * ptrUint16;
 602:Generated_Source\PSoC6/CapSense_1_Structure.c ****         volatile uint32 const * ptrUint32;
 603:Generated_Source\PSoC6/CapSense_1_Structure.c ****     } ptrData;
 604:Generated_Source\PSoC6/CapSense_1_Structure.c **** 
 605:Generated_Source\PSoC6/CapSense_1_Structure.c ****     result = DsParseParamId(paramId, &pData);
 275              		.loc 1 605 0
 276 0006 6946     		mov	r1, sp
 277              	.LVL29:
 278 0008 FFF7FEFF 		bl	DsParseParamId
 279              	.LVL30:
 606:Generated_Source\PSoC6/CapSense_1_Structure.c **** 
 607:Generated_Source\PSoC6/CapSense_1_Structure.c ****     /* Parse and validate paramId */
ARM GAS  C:\Users\Bryce\AppData\Local\Temp\ccLuOGF3.s 			page 17


 608:Generated_Source\PSoC6/CapSense_1_Structure.c ****     if (CY_RET_SUCCESS == result)
 280              		.loc 1 608 0
 281 000c 0446     		mov	r4, r0
 282 000e F8B9     		cbnz	r0, .L26
 609:Generated_Source\PSoC6/CapSense_1_Structure.c ****     {
 610:Generated_Source\PSoC6/CapSense_1_Structure.c ****         /* Get base address of parameter */
 611:Generated_Source\PSoC6/CapSense_1_Structure.c ****         if (0u == pData.flash)
 283              		.loc 1 611 0
 284 0010 9DF80530 		ldrb	r3, [sp, #5]	@ zero_extendqisi2
 285 0014 0BB9     		cbnz	r3, .L27
 612:Generated_Source\PSoC6/CapSense_1_Structure.c ****         {
 613:Generated_Source\PSoC6/CapSense_1_Structure.c ****             ptrData.ptr = &CapSense_1_dsRam;
 286              		.loc 1 613 0
 287 0016 1049     		ldr	r1, .L33
 288              	.LVL31:
 289 0018 00E0     		b	.L28
 290              	.L27:
 614:Generated_Source\PSoC6/CapSense_1_Structure.c ****         }
 615:Generated_Source\PSoC6/CapSense_1_Structure.c ****         else
 616:Generated_Source\PSoC6/CapSense_1_Structure.c ****         {
 617:Generated_Source\PSoC6/CapSense_1_Structure.c ****             ptrData.ptr = &CapSense_1_dsFlash;
 291              		.loc 1 617 0
 292 001a 1049     		ldr	r1, .L33+4
 293              	.L28:
 618:Generated_Source\PSoC6/CapSense_1_Structure.c ****         }
 619:Generated_Source\PSoC6/CapSense_1_Structure.c **** 
 620:Generated_Source\PSoC6/CapSense_1_Structure.c ****         /* Add offset to base address */
 621:Generated_Source\PSoC6/CapSense_1_Structure.c ****         ptrData.ptrUint8 += pData.offset;
 294              		.loc 1 621 0
 295 001c BDF80020 		ldrh	r2, [sp]
 296              	.LVL32:
 297 0020 8818     		adds	r0, r1, r2
 298              	.LVL33:
 622:Generated_Source\PSoC6/CapSense_1_Structure.c **** 
 623:Generated_Source\PSoC6/CapSense_1_Structure.c ****         /* Read data */
 624:Generated_Source\PSoC6/CapSense_1_Structure.c ****         if (DS_PARAM_TYPE_UINT8 == pData.type)
 299              		.loc 1 624 0
 300 0022 9DF80730 		ldrb	r3, [sp, #7]	@ zero_extendqisi2
 301 0026 012B     		cmp	r3, #1
 302 0028 02D1     		bne	.L29
 625:Generated_Source\PSoC6/CapSense_1_Structure.c ****         {
 626:Generated_Source\PSoC6/CapSense_1_Structure.c ****             *value = (uint32) (*ptrData.ptrUint8);
 303              		.loc 1 626 0
 304 002a 8B5C     		ldrb	r3, [r1, r2]	@ zero_extendqisi2
 305 002c 2B60     		str	r3, [r5]
 306 002e 0FE0     		b	.L26
 307              	.L29:
 627:Generated_Source\PSoC6/CapSense_1_Structure.c ****         }
 628:Generated_Source\PSoC6/CapSense_1_Structure.c ****         else if (DS_PARAM_TYPE_UINT16 == pData.type)
 308              		.loc 1 628 0
 309 0030 022B     		cmp	r3, #2
 310 0032 03D1     		bne	.L30
 629:Generated_Source\PSoC6/CapSense_1_Structure.c ****         {
 630:Generated_Source\PSoC6/CapSense_1_Structure.c ****             *value = (uint32) (*ptrData.ptrUint16);
 311              		.loc 1 630 0
 312 0034 0388     		ldrh	r3, [r0]
 313 0036 9BB2     		uxth	r3, r3
ARM GAS  C:\Users\Bryce\AppData\Local\Temp\ccLuOGF3.s 			page 18


 314 0038 2B60     		str	r3, [r5]
 315 003a 09E0     		b	.L26
 316              	.L30:
 631:Generated_Source\PSoC6/CapSense_1_Structure.c ****         }
 632:Generated_Source\PSoC6/CapSense_1_Structure.c ****         else if (DS_PARAM_TYPE_UINT32 == pData.type)
 317              		.loc 1 632 0
 318 003c 032B     		cmp	r3, #3
 319 003e 02D1     		bne	.L31
 633:Generated_Source\PSoC6/CapSense_1_Structure.c ****         {
 634:Generated_Source\PSoC6/CapSense_1_Structure.c ****             *value = *ptrData.ptrUint32;
 320              		.loc 1 634 0
 321 0040 0368     		ldr	r3, [r0]
 322 0042 2B60     		str	r3, [r5]
 323 0044 04E0     		b	.L26
 324              	.L31:
 635:Generated_Source\PSoC6/CapSense_1_Structure.c ****         }
 636:Generated_Source\PSoC6/CapSense_1_Structure.c ****         else
 637:Generated_Source\PSoC6/CapSense_1_Structure.c ****         {
 638:Generated_Source\PSoC6/CapSense_1_Structure.c ****             /* Parameter comes here already validated. */
 639:Generated_Source\PSoC6/CapSense_1_Structure.c ****             CY_ASSERT(0 != 0);
 325              		.loc 1 639 0 discriminator 1
 326 0046 40F27F21 		movw	r1, #639
 327              	.LVL34:
 328 004a 0548     		ldr	r0, .L33+8
 329 004c FFF7FEFF 		bl	Cy_SysLib_AssertFailed
 330              	.LVL35:
 331              	.L26:
 640:Generated_Source\PSoC6/CapSense_1_Structure.c ****         }
 641:Generated_Source\PSoC6/CapSense_1_Structure.c ****     }
 642:Generated_Source\PSoC6/CapSense_1_Structure.c **** 
 643:Generated_Source\PSoC6/CapSense_1_Structure.c ****     return result;
 644:Generated_Source\PSoC6/CapSense_1_Structure.c **** }
 332              		.loc 1 644 0
 333 0050 2046     		mov	r0, r4
 334 0052 03B0     		add	sp, sp, #12
 335              		.cfi_def_cfa_offset 12
 336              		@ sp needed
 337 0054 30BD     		pop	{r4, r5, pc}
 338              	.LVL36:
 339              	.L34:
 340 0056 00BF     		.align	2
 341              	.L33:
 342 0058 00000000 		.word	CapSense_1_dsRam
 343 005c 04000000 		.word	.LANCHOR0+4
 344 0060 00000000 		.word	.LC0
 345              		.cfi_endproc
 346              	.LFE134:
 347              		.size	CapSense_1_GetParam, .-CapSense_1_GetParam
 348              		.section	.text.CapSense_1_SetParam,"ax",%progbits
 349              		.align	2
 350              		.global	CapSense_1_SetParam
 351              		.thumb
 352              		.thumb_func
 353              		.type	CapSense_1_SetParam, %function
 354              	CapSense_1_SetParam:
 355              	.LFB135:
 645:Generated_Source\PSoC6/CapSense_1_Structure.c **** 
ARM GAS  C:\Users\Bryce\AppData\Local\Temp\ccLuOGF3.s 			page 19


 646:Generated_Source\PSoC6/CapSense_1_Structure.c **** 
 647:Generated_Source\PSoC6/CapSense_1_Structure.c **** /*******************************************************************************
 648:Generated_Source\PSoC6/CapSense_1_Structure.c **** * Function Name: CapSense_1_SetParam
 649:Generated_Source\PSoC6/CapSense_1_Structure.c **** ****************************************************************************//**
 650:Generated_Source\PSoC6/CapSense_1_Structure.c **** *
 651:Generated_Source\PSoC6/CapSense_1_Structure.c **** * \brief
 652:Generated_Source\PSoC6/CapSense_1_Structure.c **** *  Sets a new value for the specified parameter in the \ref group_structures.
 653:Generated_Source\PSoC6/CapSense_1_Structure.c **** *
 654:Generated_Source\PSoC6/CapSense_1_Structure.c **** * \details
 655:Generated_Source\PSoC6/CapSense_1_Structure.c **** *  This function sets the value of the specified parameter by the paramId
 656:Generated_Source\PSoC6/CapSense_1_Structure.c **** *  argument. The paramId for each register is available in the
 657:Generated_Source\PSoC6/CapSense_1_Structure.c **** *  CapSense_1 RegisterMap header file as
 658:Generated_Source\PSoC6/CapSense_1_Structure.c **** *  CapSense_1_<ParameterName>_PARAM_ID. The paramId is a special
 659:Generated_Source\PSoC6/CapSense_1_Structure.c **** *  enumerated value generated by the customizer. The format of paramId is as
 660:Generated_Source\PSoC6/CapSense_1_Structure.c **** *  follows:
 661:Generated_Source\PSoC6/CapSense_1_Structure.c **** *    1. [ byte 3 byte 2 byte 1 byte 0 ]
 662:Generated_Source\PSoC6/CapSense_1_Structure.c **** *    2. [ TTWFCCCC UIIIIIII MMMMMMMM LLLLLLLL ]
 663:Generated_Source\PSoC6/CapSense_1_Structure.c **** *    3. T - encodes the parameter type:
 664:Generated_Source\PSoC6/CapSense_1_Structure.c **** *      - 01b: uint8
 665:Generated_Source\PSoC6/CapSense_1_Structure.c **** *      - 10b: uint16
 666:Generated_Source\PSoC6/CapSense_1_Structure.c **** *      - 11b: uint32
 667:Generated_Source\PSoC6/CapSense_1_Structure.c **** *    4. W - indicates whether the parameter is writable:
 668:Generated_Source\PSoC6/CapSense_1_Structure.c **** *      - 0: ReadOnly
 669:Generated_Source\PSoC6/CapSense_1_Structure.c **** *      - 1: Read/Write
 670:Generated_Source\PSoC6/CapSense_1_Structure.c **** *    5. C - 4 bit CRC (X^3 + 1) of the whole paramId word, the C bits are
 671:Generated_Source\PSoC6/CapSense_1_Structure.c **** *       filled with 0s when the CRC is calculated.
 672:Generated_Source\PSoC6/CapSense_1_Structure.c **** *    6. U - indicates if the parameter affects the RAM Widget Object CRC.
 673:Generated_Source\PSoC6/CapSense_1_Structure.c **** *    7. I - specifies that the widgetId parameter belongs to
 674:Generated_Source\PSoC6/CapSense_1_Structure.c **** *    8. M,L - the parameter offset MSB and LSB accordingly in:
 675:Generated_Source\PSoC6/CapSense_1_Structure.c **** *      - Flash Data Structure if W bit is 0.
 676:Generated_Source\PSoC6/CapSense_1_Structure.c **** *      - RAM Data Structure if W bit is 1.
 677:Generated_Source\PSoC6/CapSense_1_Structure.c **** *
 678:Generated_Source\PSoC6/CapSense_1_Structure.c **** *  Refer to the \ref group_structures section for details of the data structure
 679:Generated_Source\PSoC6/CapSense_1_Structure.c **** *  organization and examples of its register access.
 680:Generated_Source\PSoC6/CapSense_1_Structure.c **** *
 681:Generated_Source\PSoC6/CapSense_1_Structure.c **** *  This function writes specified value into the desired register without
 682:Generated_Source\PSoC6/CapSense_1_Structure.c **** *  other registers update. It is application layer responsibility to keep all
 683:Generated_Source\PSoC6/CapSense_1_Structure.c **** *  the data structure registers aligned. Repeated call of
 684:Generated_Source\PSoC6/CapSense_1_Structure.c **** *  CapSense_1_Start() function helps aligning dependent register values.
 685:Generated_Source\PSoC6/CapSense_1_Structure.c **** *
 686:Generated_Source\PSoC6/CapSense_1_Structure.c **** * \param paramId
 687:Generated_Source\PSoC6/CapSense_1_Structure.c **** *  Specifies the ID of parameter to set its value.
 688:Generated_Source\PSoC6/CapSense_1_Structure.c **** *  A macro for the parameter ID can be found in the CapSense_1 RegisterMap header
 689:Generated_Source\PSoC6/CapSense_1_Structure.c **** *  file defined as CapSense_1_<ParameterName>_PARAM_ID.
 690:Generated_Source\PSoC6/CapSense_1_Structure.c **** 
 691:Generated_Source\PSoC6/CapSense_1_Structure.c **** * \param value
 692:Generated_Source\PSoC6/CapSense_1_Structure.c **** *  Specifies the new parameter's value.
 693:Generated_Source\PSoC6/CapSense_1_Structure.c **** *
 694:Generated_Source\PSoC6/CapSense_1_Structure.c **** * \return
 695:Generated_Source\PSoC6/CapSense_1_Structure.c **** *  Returns the status of the operation:
 696:Generated_Source\PSoC6/CapSense_1_Structure.c **** *    - CY_RET_SUCCESS - The operation is successfully completed.
 697:Generated_Source\PSoC6/CapSense_1_Structure.c **** *    - CY_RET_BAD_PARAM - The input parameter is invalid.
 698:Generated_Source\PSoC6/CapSense_1_Structure.c **** *
 699:Generated_Source\PSoC6/CapSense_1_Structure.c **** *******************************************************************************/
 700:Generated_Source\PSoC6/CapSense_1_Structure.c **** cy_status CapSense_1_SetParam(uint32 paramId, uint32 value)
 701:Generated_Source\PSoC6/CapSense_1_Structure.c **** {
 356              		.loc 1 701 0
ARM GAS  C:\Users\Bryce\AppData\Local\Temp\ccLuOGF3.s 			page 20


 357              		.cfi_startproc
 358              		@ args = 0, pretend = 0, frame = 8
 359              		@ frame_needed = 0, uses_anonymous_args = 0
 360              	.LVL37:
 361 0000 30B5     		push	{r4, r5, lr}
 362              		.cfi_def_cfa_offset 12
 363              		.cfi_offset 4, -12
 364              		.cfi_offset 5, -8
 365              		.cfi_offset 14, -4
 366 0002 83B0     		sub	sp, sp, #12
 367              		.cfi_def_cfa_offset 24
 368 0004 0D46     		mov	r5, r1
 702:Generated_Source\PSoC6/CapSense_1_Structure.c ****     cy_status result;
 703:Generated_Source\PSoC6/CapSense_1_Structure.c ****     PARAM_ID_STRUCT pData;
 704:Generated_Source\PSoC6/CapSense_1_Structure.c **** 
 705:Generated_Source\PSoC6/CapSense_1_Structure.c ****     union
 706:Generated_Source\PSoC6/CapSense_1_Structure.c ****     {
 707:Generated_Source\PSoC6/CapSense_1_Structure.c ****         volatile void   * ptr;
 708:Generated_Source\PSoC6/CapSense_1_Structure.c ****         volatile uint8  * ptrUint8;
 709:Generated_Source\PSoC6/CapSense_1_Structure.c ****         volatile uint16 * ptrUint16;
 710:Generated_Source\PSoC6/CapSense_1_Structure.c ****         volatile uint32 * ptrUint32;
 711:Generated_Source\PSoC6/CapSense_1_Structure.c ****     } ptrData;
 712:Generated_Source\PSoC6/CapSense_1_Structure.c **** 
 713:Generated_Source\PSoC6/CapSense_1_Structure.c ****     result = DsParseParamId(paramId, &pData);
 369              		.loc 1 713 0
 370 0006 6946     		mov	r1, sp
 371              	.LVL38:
 372 0008 FFF7FEFF 		bl	DsParseParamId
 373              	.LVL39:
 714:Generated_Source\PSoC6/CapSense_1_Structure.c **** 
 715:Generated_Source\PSoC6/CapSense_1_Structure.c ****     /* verify if parameter is writable */
 716:Generated_Source\PSoC6/CapSense_1_Structure.c ****     if (CY_RET_SUCCESS == result)
 374              		.loc 1 716 0
 375 000c 0446     		mov	r4, r0
 376 000e 18B9     		cbnz	r0, .L36
 717:Generated_Source\PSoC6/CapSense_1_Structure.c ****     {
 718:Generated_Source\PSoC6/CapSense_1_Structure.c ****         if (0u == pData.rw)
 377              		.loc 1 718 0
 378 0010 9DF80630 		ldrb	r3, [sp, #6]	@ zero_extendqisi2
 379 0014 03B9     		cbnz	r3, .L36
 719:Generated_Source\PSoC6/CapSense_1_Structure.c ****         {
 720:Generated_Source\PSoC6/CapSense_1_Structure.c ****             result = CY_RET_BAD_PARAM;
 380              		.loc 1 720 0
 381 0016 0124     		movs	r4, #1
 382              	.L36:
 383              	.LVL40:
 721:Generated_Source\PSoC6/CapSense_1_Structure.c ****         }
 722:Generated_Source\PSoC6/CapSense_1_Structure.c ****     }
 723:Generated_Source\PSoC6/CapSense_1_Structure.c **** 
 724:Generated_Source\PSoC6/CapSense_1_Structure.c ****     /* Parse and validate paramId */
 725:Generated_Source\PSoC6/CapSense_1_Structure.c ****     if (CY_RET_SUCCESS == result)
 384              		.loc 1 725 0
 385 0018 BCB9     		cbnz	r4, .L37
 726:Generated_Source\PSoC6/CapSense_1_Structure.c ****     {
 727:Generated_Source\PSoC6/CapSense_1_Structure.c ****         /* Get base address of parameter */
 728:Generated_Source\PSoC6/CapSense_1_Structure.c ****         ptrData.ptr = &CapSense_1_dsRam;
 729:Generated_Source\PSoC6/CapSense_1_Structure.c **** 
ARM GAS  C:\Users\Bryce\AppData\Local\Temp\ccLuOGF3.s 			page 21


 730:Generated_Source\PSoC6/CapSense_1_Structure.c ****         /* Add offset to base address */
 731:Generated_Source\PSoC6/CapSense_1_Structure.c ****         ptrData.ptrUint8 += pData.offset;
 386              		.loc 1 731 0
 387 001a BDF80010 		ldrh	r1, [sp]
 388 001e 0C4A     		ldr	r2, .L43
 732:Generated_Source\PSoC6/CapSense_1_Structure.c **** 
 733:Generated_Source\PSoC6/CapSense_1_Structure.c ****         /* Write data */
 734:Generated_Source\PSoC6/CapSense_1_Structure.c ****         if (DS_PARAM_TYPE_UINT8 == pData.type)
 389              		.loc 1 734 0
 390 0020 9DF80730 		ldrb	r3, [sp, #7]	@ zero_extendqisi2
 391 0024 012B     		cmp	r3, #1
 392 0026 02D1     		bne	.L38
 735:Generated_Source\PSoC6/CapSense_1_Structure.c ****         {
 736:Generated_Source\PSoC6/CapSense_1_Structure.c ****             *ptrData.ptrUint8 = CY_LO8(value);
 393              		.loc 1 736 0
 394 0028 EDB2     		uxtb	r5, r5
 395              	.LVL41:
 396 002a 8D54     		strb	r5, [r1, r2]
 397 002c 0DE0     		b	.L37
 398              	.LVL42:
 399              	.L38:
 737:Generated_Source\PSoC6/CapSense_1_Structure.c ****         }
 738:Generated_Source\PSoC6/CapSense_1_Structure.c ****         else if (DS_PARAM_TYPE_UINT16 == pData.type)
 400              		.loc 1 738 0
 401 002e 022B     		cmp	r3, #2
 402 0030 02D1     		bne	.L39
 739:Generated_Source\PSoC6/CapSense_1_Structure.c ****         {
 740:Generated_Source\PSoC6/CapSense_1_Structure.c ****             *ptrData.ptrUint16 = CY_LO16(value);
 403              		.loc 1 740 0
 404 0032 ADB2     		uxth	r5, r5
 405              	.LVL43:
 406 0034 8D52     		strh	r5, [r1, r2]	@ movhi
 407 0036 08E0     		b	.L37
 408              	.LVL44:
 409              	.L39:
 741:Generated_Source\PSoC6/CapSense_1_Structure.c ****         }
 742:Generated_Source\PSoC6/CapSense_1_Structure.c ****         else if (DS_PARAM_TYPE_UINT32 == pData.type)
 410              		.loc 1 742 0
 411 0038 032B     		cmp	r3, #3
 412 003a 01D1     		bne	.L40
 743:Generated_Source\PSoC6/CapSense_1_Structure.c ****         {
 744:Generated_Source\PSoC6/CapSense_1_Structure.c ****             *ptrData.ptrUint32 = value;
 413              		.loc 1 744 0
 414 003c 8D50     		str	r5, [r1, r2]
 415 003e 04E0     		b	.L37
 416              	.L40:
 745:Generated_Source\PSoC6/CapSense_1_Structure.c ****         }
 746:Generated_Source\PSoC6/CapSense_1_Structure.c ****         else
 747:Generated_Source\PSoC6/CapSense_1_Structure.c ****         {
 748:Generated_Source\PSoC6/CapSense_1_Structure.c ****             /* Parameter comes here already validated. */
 749:Generated_Source\PSoC6/CapSense_1_Structure.c ****             CY_ASSERT(0 != 0);
 417              		.loc 1 749 0 discriminator 1
 418 0040 40F2ED21 		movw	r1, #749
 419 0044 0348     		ldr	r0, .L43+4
 420 0046 FFF7FEFF 		bl	Cy_SysLib_AssertFailed
 421              	.LVL45:
 422              	.L37:
ARM GAS  C:\Users\Bryce\AppData\Local\Temp\ccLuOGF3.s 			page 22


 750:Generated_Source\PSoC6/CapSense_1_Structure.c ****         }
 751:Generated_Source\PSoC6/CapSense_1_Structure.c **** 
 752:Generated_Source\PSoC6/CapSense_1_Structure.c ****         #if (CapSense_1_ENABLE == (CapSense_1_TST_WDGT_CRC_EN || CapSense_1_TST_GLOBAL_CRC_EN))
 753:Generated_Source\PSoC6/CapSense_1_Structure.c ****             /* Update widget or global CRC if self-test is enabled and parameter affects it */
 754:Generated_Source\PSoC6/CapSense_1_Structure.c ****             if (0u != pData.affectsCrc)
 755:Generated_Source\PSoC6/CapSense_1_Structure.c ****             {
 756:Generated_Source\PSoC6/CapSense_1_Structure.c ****                 if ((ptrData.ptrUint16 >= &CapSense_1_dsRam.csd0Config) &&
 757:Generated_Source\PSoC6/CapSense_1_Structure.c ****                     (ptrData.ptrUint16 <  &CapSense_1_dsRam.glbCrc))
 758:Generated_Source\PSoC6/CapSense_1_Structure.c ****                 {
 759:Generated_Source\PSoC6/CapSense_1_Structure.c **** 
 760:Generated_Source\PSoC6/CapSense_1_Structure.c ****                     #if (CapSense_1_ENABLE == CapSense_1_TST_GLOBAL_CRC_EN)
 761:Generated_Source\PSoC6/CapSense_1_Structure.c ****                         CapSense_1_DsUpdateGlobalCrc();
 762:Generated_Source\PSoC6/CapSense_1_Structure.c ****                     #endif /* (CapSense_1_ENABLE == CapSense_1_TST_GLOBAL_CRC_EN) */
 763:Generated_Source\PSoC6/CapSense_1_Structure.c **** 
 764:Generated_Source\PSoC6/CapSense_1_Structure.c ****                 }
 765:Generated_Source\PSoC6/CapSense_1_Structure.c ****                 else
 766:Generated_Source\PSoC6/CapSense_1_Structure.c ****                 {
 767:Generated_Source\PSoC6/CapSense_1_Structure.c ****                     #if (CapSense_1_ENABLE == CapSense_1_TST_WDGT_CRC_EN)
 768:Generated_Source\PSoC6/CapSense_1_Structure.c ****                         CapSense_1_DsUpdateWidgetCrc((uint32)pData.widgetId);
 769:Generated_Source\PSoC6/CapSense_1_Structure.c ****                     #endif /* (CapSense_1_ENABLE == CapSense_1_TST_WDGT_CRC_EN) */
 770:Generated_Source\PSoC6/CapSense_1_Structure.c ****                 }
 771:Generated_Source\PSoC6/CapSense_1_Structure.c ****             }
 772:Generated_Source\PSoC6/CapSense_1_Structure.c ****         #endif /* (CapSense_1_ENABLE == (CapSense_1_TST_WDGT_CRC_EN || CapSense_1_TST_GLOBAL_CRC_EN
 773:Generated_Source\PSoC6/CapSense_1_Structure.c ****     }
 774:Generated_Source\PSoC6/CapSense_1_Structure.c **** 
 775:Generated_Source\PSoC6/CapSense_1_Structure.c ****     return result;
 776:Generated_Source\PSoC6/CapSense_1_Structure.c **** }
 423              		.loc 1 776 0
 424 004a 2046     		mov	r0, r4
 425 004c 03B0     		add	sp, sp, #12
 426              		.cfi_def_cfa_offset 12
 427              		@ sp needed
 428 004e 30BD     		pop	{r4, r5, pc}
 429              	.LVL46:
 430              	.L44:
 431              		.align	2
 432              	.L43:
 433 0050 00000000 		.word	CapSense_1_dsRam
 434 0054 00000000 		.word	.LC0
 435              		.cfi_endproc
 436              	.LFE135:
 437              		.size	CapSense_1_SetParam, .-CapSense_1_SetParam
 438              		.section	.text.CapSense_1_IsAnyWidgetActive,"ax",%progbits
 439              		.align	2
 440              		.global	CapSense_1_IsAnyWidgetActive
 441              		.thumb
 442              		.thumb_func
 443              		.type	CapSense_1_IsAnyWidgetActive, %function
 444              	CapSense_1_IsAnyWidgetActive:
 445              	.LFB136:
 777:Generated_Source\PSoC6/CapSense_1_Structure.c **** 
 778:Generated_Source\PSoC6/CapSense_1_Structure.c **** /*******************************************************************************
 779:Generated_Source\PSoC6/CapSense_1_Structure.c **** * Function Name: CapSense_1_IsAnyWidgetActive
 780:Generated_Source\PSoC6/CapSense_1_Structure.c **** ****************************************************************************//**
 781:Generated_Source\PSoC6/CapSense_1_Structure.c **** *
 782:Generated_Source\PSoC6/CapSense_1_Structure.c **** * \brief
 783:Generated_Source\PSoC6/CapSense_1_Structure.c **** *  Reports if any widget has detected a touch.
ARM GAS  C:\Users\Bryce\AppData\Local\Temp\ccLuOGF3.s 			page 23


 784:Generated_Source\PSoC6/CapSense_1_Structure.c **** *
 785:Generated_Source\PSoC6/CapSense_1_Structure.c **** * \details
 786:Generated_Source\PSoC6/CapSense_1_Structure.c **** *  This function reports if any widget has detected a touch or not by extracting
 787:Generated_Source\PSoC6/CapSense_1_Structure.c **** *  information from the wdgtStatus registers
 788:Generated_Source\PSoC6/CapSense_1_Structure.c **** *  (CapSense_1_WDGT_STATUS<X>_VALUE). This function does not process a
 789:Generated_Source\PSoC6/CapSense_1_Structure.c **** *  widget but extracts processed results from the \ref group_structures.
 790:Generated_Source\PSoC6/CapSense_1_Structure.c **** *
 791:Generated_Source\PSoC6/CapSense_1_Structure.c **** * \return
 792:Generated_Source\PSoC6/CapSense_1_Structure.c **** *   Returns the touch detection status of all the widgets:
 793:Generated_Source\PSoC6/CapSense_1_Structure.c **** *     - Zero - No touch is detected in all the widgets or sensors.
 794:Generated_Source\PSoC6/CapSense_1_Structure.c **** *     - Non-zero - At least one widget or sensor detected a touch.
 795:Generated_Source\PSoC6/CapSense_1_Structure.c **** *
 796:Generated_Source\PSoC6/CapSense_1_Structure.c **** *******************************************************************************/
 797:Generated_Source\PSoC6/CapSense_1_Structure.c **** uint32 CapSense_1_IsAnyWidgetActive(void)
 798:Generated_Source\PSoC6/CapSense_1_Structure.c **** {
 446              		.loc 1 798 0
 447              		.cfi_startproc
 448              		@ args = 0, pretend = 0, frame = 0
 449              		@ frame_needed = 0, uses_anonymous_args = 0
 450              		@ link register save eliminated.
 451              	.LVL47:
 799:Generated_Source\PSoC6/CapSense_1_Structure.c ****     uint32 result = 0Lu;
 800:Generated_Source\PSoC6/CapSense_1_Structure.c ****     uint32 wdWord;
 801:Generated_Source\PSoC6/CapSense_1_Structure.c **** 
 802:Generated_Source\PSoC6/CapSense_1_Structure.c ****     for (wdWord = CapSense_1_WDGT_STATUS_WORDS; wdWord-- > 0u;)
 452              		.loc 1 802 0
 453 0000 0123     		movs	r3, #1
 799:Generated_Source\PSoC6/CapSense_1_Structure.c ****     uint32 result = 0Lu;
 454              		.loc 1 799 0
 455 0002 0020     		movs	r0, #0
 456              		.loc 1 802 0
 457 0004 06E0     		b	.L46
 458              	.LVL48:
 459              	.L47:
 803:Generated_Source\PSoC6/CapSense_1_Structure.c ****     {
 804:Generated_Source\PSoC6/CapSense_1_Structure.c ****         result |= CapSense_1_dsRam.wdgtStatus[wdWord];
 460              		.loc 1 804 0
 461 0006 111D     		adds	r1, r2, #4
 462 0008 044B     		ldr	r3, .L48
 463 000a 03EB8103 		add	r3, r3, r1, lsl #2
 464 000e 5B68     		ldr	r3, [r3, #4]
 465 0010 1843     		orrs	r0, r0, r3
 466              	.LVL49:
 802:Generated_Source\PSoC6/CapSense_1_Structure.c ****     {
 467              		.loc 1 802 0
 468 0012 1346     		mov	r3, r2
 469              	.LVL50:
 470              	.L46:
 802:Generated_Source\PSoC6/CapSense_1_Structure.c ****     {
 471              		.loc 1 802 0 is_stmt 0 discriminator 1
 472 0014 5A1E     		subs	r2, r3, #1
 473              	.LVL51:
 474 0016 002B     		cmp	r3, #0
 475 0018 F5D1     		bne	.L47
 805:Generated_Source\PSoC6/CapSense_1_Structure.c ****     }
 806:Generated_Source\PSoC6/CapSense_1_Structure.c **** 
 807:Generated_Source\PSoC6/CapSense_1_Structure.c ****     return result;
ARM GAS  C:\Users\Bryce\AppData\Local\Temp\ccLuOGF3.s 			page 24


 808:Generated_Source\PSoC6/CapSense_1_Structure.c **** }
 476              		.loc 1 808 0 is_stmt 1
 477 001a 7047     		bx	lr
 478              	.L49:
 479              		.align	2
 480              	.L48:
 481 001c 00000000 		.word	CapSense_1_dsRam
 482              		.cfi_endproc
 483              	.LFE136:
 484              		.size	CapSense_1_IsAnyWidgetActive, .-CapSense_1_IsAnyWidgetActive
 485              		.section	.text.CapSense_1_IsWidgetActive,"ax",%progbits
 486              		.align	2
 487              		.global	CapSense_1_IsWidgetActive
 488              		.thumb
 489              		.thumb_func
 490              		.type	CapSense_1_IsWidgetActive, %function
 491              	CapSense_1_IsWidgetActive:
 492              	.LFB137:
 809:Generated_Source\PSoC6/CapSense_1_Structure.c **** 
 810:Generated_Source\PSoC6/CapSense_1_Structure.c **** 
 811:Generated_Source\PSoC6/CapSense_1_Structure.c **** /*******************************************************************************
 812:Generated_Source\PSoC6/CapSense_1_Structure.c **** * Function Name: CapSense_1_IsWidgetActive
 813:Generated_Source\PSoC6/CapSense_1_Structure.c **** ****************************************************************************//**
 814:Generated_Source\PSoC6/CapSense_1_Structure.c **** *
 815:Generated_Source\PSoC6/CapSense_1_Structure.c **** * \brief
 816:Generated_Source\PSoC6/CapSense_1_Structure.c **** *  Reports if the specified widget detects a touch on any of its sensors.
 817:Generated_Source\PSoC6/CapSense_1_Structure.c **** *
 818:Generated_Source\PSoC6/CapSense_1_Structure.c **** * \details
 819:Generated_Source\PSoC6/CapSense_1_Structure.c **** *  This function reports if the specified widget has detected a touch or not by
 820:Generated_Source\PSoC6/CapSense_1_Structure.c **** *  extracting information from the wdgtStatus registers
 821:Generated_Source\PSoC6/CapSense_1_Structure.c **** *  (CapSense_1_WDGT_STATUS<X>_VALUE). This function does not process the
 822:Generated_Source\PSoC6/CapSense_1_Structure.c **** *  widget but extracts processed results from the \ref group_structures.
 823:Generated_Source\PSoC6/CapSense_1_Structure.c **** *
 824:Generated_Source\PSoC6/CapSense_1_Structure.c **** * \param widgetId
 825:Generated_Source\PSoC6/CapSense_1_Structure.c **** *  Specifies the ID number of the widget to get its status.
 826:Generated_Source\PSoC6/CapSense_1_Structure.c **** *  A macro for the widget ID can be found in the CapSense_1 Configuration header
 827:Generated_Source\PSoC6/CapSense_1_Structure.c **** *  file defined as CapSense_1_<WidgetName>_WDGT_ID.
 828:Generated_Source\PSoC6/CapSense_1_Structure.c **** *
 829:Generated_Source\PSoC6/CapSense_1_Structure.c **** * \return
 830:Generated_Source\PSoC6/CapSense_1_Structure.c **** *  Returns the touch detection status of the specified widgets:
 831:Generated_Source\PSoC6/CapSense_1_Structure.c **** *    - Zero - No touch is detected in the specified widget or a wrong widgetId
 832:Generated_Source\PSoC6/CapSense_1_Structure.c **** *      is specified.
 833:Generated_Source\PSoC6/CapSense_1_Structure.c **** *    - Non-zero if at least one sensor of the specified widget is active, i.e.
 834:Generated_Source\PSoC6/CapSense_1_Structure.c **** *      a touch is detected.
 835:Generated_Source\PSoC6/CapSense_1_Structure.c **** *
 836:Generated_Source\PSoC6/CapSense_1_Structure.c **** *******************************************************************************/
 837:Generated_Source\PSoC6/CapSense_1_Structure.c **** uint32 CapSense_1_IsWidgetActive(uint32 widgetId)
 838:Generated_Source\PSoC6/CapSense_1_Structure.c **** {
 493              		.loc 1 838 0
 494              		.cfi_startproc
 495              		@ args = 0, pretend = 0, frame = 0
 496              		@ frame_needed = 0, uses_anonymous_args = 0
 497              		@ link register save eliminated.
 498              	.LVL52:
 839:Generated_Source\PSoC6/CapSense_1_Structure.c ****     uint32 result = 0Lu;
 840:Generated_Source\PSoC6/CapSense_1_Structure.c **** 
 841:Generated_Source\PSoC6/CapSense_1_Structure.c ****     if (widgetId < CapSense_1_TOTAL_WIDGETS)
ARM GAS  C:\Users\Bryce\AppData\Local\Temp\ccLuOGF3.s 			page 25


 499              		.loc 1 841 0
 500 0000 0346     		mov	r3, r0
 501 0002 60B9     		cbnz	r0, .L52
 842:Generated_Source\PSoC6/CapSense_1_Structure.c ****     {
 843:Generated_Source\PSoC6/CapSense_1_Structure.c ****         result = CapSense_1_GET_WIDGET_ACTIVE_STATUS(widgetId);
 502              		.loc 1 843 0
 503 0004 00F01F00 		and	r0, r0, #31
 504              	.LVL53:
 505 0008 0122     		movs	r2, #1
 506 000a 02FA00F0 		lsl	r0, r2, r0
 507 000e 5B09     		lsrs	r3, r3, #5
 508              	.LVL54:
 509 0010 0433     		adds	r3, r3, #4
 510 0012 044A     		ldr	r2, .L53
 511 0014 02EB8303 		add	r3, r2, r3, lsl #2
 512 0018 5B68     		ldr	r3, [r3, #4]
 513 001a 1840     		ands	r0, r0, r3
 514              	.LVL55:
 515 001c 7047     		bx	lr
 516              	.LVL56:
 517              	.L52:
 839:Generated_Source\PSoC6/CapSense_1_Structure.c ****     uint32 result = 0Lu;
 518              		.loc 1 839 0
 519 001e 0020     		movs	r0, #0
 520              	.LVL57:
 844:Generated_Source\PSoC6/CapSense_1_Structure.c ****     }
 845:Generated_Source\PSoC6/CapSense_1_Structure.c ****     return result;
 846:Generated_Source\PSoC6/CapSense_1_Structure.c **** }
 521              		.loc 1 846 0
 522 0020 7047     		bx	lr
 523              	.L54:
 524 0022 00BF     		.align	2
 525              	.L53:
 526 0024 00000000 		.word	CapSense_1_dsRam
 527              		.cfi_endproc
 528              	.LFE137:
 529              		.size	CapSense_1_IsWidgetActive, .-CapSense_1_IsWidgetActive
 530              		.section	.text.CapSense_1_IsSensorActive,"ax",%progbits
 531              		.align	2
 532              		.global	CapSense_1_IsSensorActive
 533              		.thumb
 534              		.thumb_func
 535              		.type	CapSense_1_IsSensorActive, %function
 536              	CapSense_1_IsSensorActive:
 537              	.LFB138:
 847:Generated_Source\PSoC6/CapSense_1_Structure.c **** 
 848:Generated_Source\PSoC6/CapSense_1_Structure.c **** 
 849:Generated_Source\PSoC6/CapSense_1_Structure.c **** /*******************************************************************************
 850:Generated_Source\PSoC6/CapSense_1_Structure.c **** * Function Name: CapSense_1_IsSensorActive
 851:Generated_Source\PSoC6/CapSense_1_Structure.c **** ****************************************************************************//**
 852:Generated_Source\PSoC6/CapSense_1_Structure.c **** *
 853:Generated_Source\PSoC6/CapSense_1_Structure.c **** * \brief
 854:Generated_Source\PSoC6/CapSense_1_Structure.c **** *  Reports if the specified sensor in the widget detects a touch.
 855:Generated_Source\PSoC6/CapSense_1_Structure.c **** *
 856:Generated_Source\PSoC6/CapSense_1_Structure.c **** * \details
 857:Generated_Source\PSoC6/CapSense_1_Structure.c **** *  This function reports if the specified sensor in the widget has detected a
 858:Generated_Source\PSoC6/CapSense_1_Structure.c **** *  touch or not by extracting information from the wdgtStatus registers
ARM GAS  C:\Users\Bryce\AppData\Local\Temp\ccLuOGF3.s 			page 26


 859:Generated_Source\PSoC6/CapSense_1_Structure.c **** *  (CapSense_1_WDGT_STATUS<X>_VALUE). This function does not process the
 860:Generated_Source\PSoC6/CapSense_1_Structure.c **** *  widget or sensor but extracts processed results from the \ref group_structures.
 861:Generated_Source\PSoC6/CapSense_1_Structure.c **** *
 862:Generated_Source\PSoC6/CapSense_1_Structure.c **** *  For proximity sensors, this function returns the proximity detection status. To
 863:Generated_Source\PSoC6/CapSense_1_Structure.c **** *  get the finger touch status of proximity sensors, use the
 864:Generated_Source\PSoC6/CapSense_1_Structure.c **** *  CapSense_1_IsProximitySensorActive() function.
 865:Generated_Source\PSoC6/CapSense_1_Structure.c **** *
 866:Generated_Source\PSoC6/CapSense_1_Structure.c **** * \param widgetId
 867:Generated_Source\PSoC6/CapSense_1_Structure.c **** *  Specifies the ID number of the widget.
 868:Generated_Source\PSoC6/CapSense_1_Structure.c **** *  A macro for the widget ID can be found in the CapSense_1 Configuration header
 869:Generated_Source\PSoC6/CapSense_1_Structure.c **** *  file defined as CapSense_1_<WidgetName>_WDGT_ID.
 870:Generated_Source\PSoC6/CapSense_1_Structure.c **** 
 871:Generated_Source\PSoC6/CapSense_1_Structure.c **** * \param sensorId
 872:Generated_Source\PSoC6/CapSense_1_Structure.c **** *  Specifies the ID number of the sensor within the widget to get its touch
 873:Generated_Source\PSoC6/CapSense_1_Structure.c **** *  detection status.
 874:Generated_Source\PSoC6/CapSense_1_Structure.c **** *  A macro for the sensor ID within the specified widget can be found in the
 875:Generated_Source\PSoC6/CapSense_1_Structure.c **** *  CapSense_1 Configuration header file defined as
 876:Generated_Source\PSoC6/CapSense_1_Structure.c **** *  CapSense_1_<WidgetName>_SNS<SensorNumber>_ID.
 877:Generated_Source\PSoC6/CapSense_1_Structure.c **** *
 878:Generated_Source\PSoC6/CapSense_1_Structure.c **** * \return
 879:Generated_Source\PSoC6/CapSense_1_Structure.c **** *  Returns the touch detection status of the specified sensor / widget:
 880:Generated_Source\PSoC6/CapSense_1_Structure.c **** *    - Zero if no touch is detected in the specified sensor / widget or a wrong
 881:Generated_Source\PSoC6/CapSense_1_Structure.c **** *      widget ID / sensor ID is specified.
 882:Generated_Source\PSoC6/CapSense_1_Structure.c **** *    - Non-zero if the specified sensor is active i.e. touch is detected. If the
 883:Generated_Source\PSoC6/CapSense_1_Structure.c **** *      specific sensor belongs to a proximity widget, the proximity detection
 884:Generated_Source\PSoC6/CapSense_1_Structure.c **** *      status is returned.
 885:Generated_Source\PSoC6/CapSense_1_Structure.c **** *
 886:Generated_Source\PSoC6/CapSense_1_Structure.c **** *******************************************************************************/
 887:Generated_Source\PSoC6/CapSense_1_Structure.c **** uint32 CapSense_1_IsSensorActive(uint32 widgetId, uint32 sensorId)
 888:Generated_Source\PSoC6/CapSense_1_Structure.c **** {
 538              		.loc 1 888 0
 539              		.cfi_startproc
 540              		@ args = 0, pretend = 0, frame = 0
 541              		@ frame_needed = 0, uses_anonymous_args = 0
 542              		@ link register save eliminated.
 543              	.LVL58:
 889:Generated_Source\PSoC6/CapSense_1_Structure.c ****     uint32 result = 0Lu;
 890:Generated_Source\PSoC6/CapSense_1_Structure.c **** 
 891:Generated_Source\PSoC6/CapSense_1_Structure.c ****     if ((widgetId < CapSense_1_TOTAL_WIDGETS) &&
 544              		.loc 1 891 0
 545 0000 0346     		mov	r3, r0
 546 0002 70B9     		cbnz	r0, .L57
 892:Generated_Source\PSoC6/CapSense_1_Structure.c ****         (sensorId < CapSense_1_GET_SENSOR_COUNT(widgetId)))
 547              		.loc 1 892 0 discriminator 1
 548 0004 094A     		ldr	r2, .L59
 549 0006 02EB4012 		add	r2, r2, r0, lsl #5
 550 000a 928B     		ldrh	r2, [r2, #28]
 891:Generated_Source\PSoC6/CapSense_1_Structure.c ****         (sensorId < CapSense_1_GET_SENSOR_COUNT(widgetId)))
 551              		.loc 1 891 0 discriminator 1
 552 000c 8A42     		cmp	r2, r1
 553 000e 0AD9     		bls	.L58
 893:Generated_Source\PSoC6/CapSense_1_Structure.c ****     {
 894:Generated_Source\PSoC6/CapSense_1_Structure.c ****         #if (CapSense_1_ENABLE == CapSense_1_PROXIMITY_WIDGET_EN)
 895:Generated_Source\PSoC6/CapSense_1_Structure.c ****             if (CapSense_1_WD_PROXIMITY_E ==
 896:Generated_Source\PSoC6/CapSense_1_Structure.c ****                 (CapSense_1_WD_TYPE_ENUM)CapSense_1_dsFlash.wdgtArray[widgetId].wdgtType)
 897:Generated_Source\PSoC6/CapSense_1_Structure.c ****             {
 898:Generated_Source\PSoC6/CapSense_1_Structure.c ****                 sensorId = CapSense_1_PROX_STS_OFFSET(sensorId);
ARM GAS  C:\Users\Bryce\AppData\Local\Temp\ccLuOGF3.s 			page 27


 899:Generated_Source\PSoC6/CapSense_1_Structure.c ****             }
 900:Generated_Source\PSoC6/CapSense_1_Structure.c ****         #endif /* (CapSense_1_ENABLE != CapSense_1_PROXIMITY_WIDGET_EN) */
 901:Generated_Source\PSoC6/CapSense_1_Structure.c ****         result = CapSense_1_dsRam.snsStatus[widgetId] & (1Lu << sensorId);
 554              		.loc 1 901 0
 555 0010 074A     		ldr	r2, .L59+4
 556 0012 1344     		add	r3, r3, r2
 557 0014 1B7E     		ldrb	r3, [r3, #24]	@ zero_extendqisi2
 558 0016 0120     		movs	r0, #1
 559              	.LVL59:
 560 0018 00FA01F1 		lsl	r1, r0, r1
 561              	.LVL60:
 562 001c 03EA0100 		and	r0, r3, r1
 563              	.LVL61:
 564 0020 7047     		bx	lr
 565              	.LVL62:
 566              	.L57:
 889:Generated_Source\PSoC6/CapSense_1_Structure.c **** 
 567              		.loc 1 889 0
 568 0022 0020     		movs	r0, #0
 569              	.LVL63:
 570 0024 7047     		bx	lr
 571              	.LVL64:
 572              	.L58:
 573 0026 0020     		movs	r0, #0
 574              	.LVL65:
 902:Generated_Source\PSoC6/CapSense_1_Structure.c ****     }
 903:Generated_Source\PSoC6/CapSense_1_Structure.c **** 
 904:Generated_Source\PSoC6/CapSense_1_Structure.c ****     return result;
 905:Generated_Source\PSoC6/CapSense_1_Structure.c **** }
 575              		.loc 1 905 0
 576 0028 7047     		bx	lr
 577              	.L60:
 578 002a 00BF     		.align	2
 579              	.L59:
 580 002c 00000000 		.word	.LANCHOR0
 581 0030 00000000 		.word	CapSense_1_dsRam
 582              		.cfi_endproc
 583              	.LFE138:
 584              		.size	CapSense_1_IsSensorActive, .-CapSense_1_IsSensorActive
 585              		.global	CapSense_1_ramIdacInit
 586              		.global	CapSense_1_ramWidgetInit
 587              		.global	CapSense_1_ioList
 588              		.global	CapSense_1_dsFlash
 589              		.comm	CapSense_1_dsRam,64,4
 590              		.section	.rodata
 591              		.align	2
 592              		.set	.LANCHOR0,. + 0
 593              		.type	CapSense_1_ramIdacInit, %object
 594              		.size	CapSense_1_ramIdacInit, 1
 595              	CapSense_1_ramIdacInit:
 596 0000 20       		.byte	32
 597 0001 000000   		.space	3
 598              		.type	CapSense_1_dsFlash, %object
 599              		.size	CapSense_1_dsFlash, 32
 600              	CapSense_1_dsFlash:
 601 0004 00000000 		.word	CapSense_1_ioList
 602 0008 1E000000 		.word	CapSense_1_dsRam+30
ARM GAS  C:\Users\Bryce\AppData\Local\Temp\ccLuOGF3.s 			page 28


 603 000c 30000000 		.word	CapSense_1_dsRam+48
 604 0010 00000000 		.word	0
 605 0014 0C000000 		.word	CapSense_1_debounceHitSensor
 606 0018 01280000 		.word	10241
 607 001c 0100     		.short	1
 608 001e 01       		.byte	1
 609 001f 01       		.byte	1
 610 0020 00000000 		.word	CapSense_1_noiseEnvlpHitSensor
 611              		.type	CapSense_1_ramWidgetInit, %object
 612              		.size	CapSense_1_ramWidgetInit, 18
 613              	CapSense_1_ramWidgetInit:
 614 0024 0C00     		.short	12
 615 0026 6400     		.short	100
 616 0028 28       		.byte	40
 617 0029 28       		.byte	40
 618 002a 0A       		.byte	10
 619 002b 03       		.byte	3
 620 002c 1E       		.byte	30
 621 002d 20       		.byte	32
 622 002e 0400     		.short	4
 623 0030 00       		.byte	0
 624 0031 00       		.space	1
 625 0032 A000     		.short	160
 626 0034 0000     		.short	0
 627 0036 0000     		.space	2
 628              		.type	CapSense_1_ioList, %object
 629              		.size	CapSense_1_ioList, 8
 630              	CapSense_1_ioList:
 631 0038 00033240 		.word	1077019392
 632 003c 02       		.byte	2
 633 003d 000000   		.space	3
 634              		.section	.rodata.str1.4,"aMS",%progbits,1
 635              		.align	2
 636              	.LC0:
 637 0000 47656E65 		.ascii	"Generated_Source\\PSoC6\\CapSense_1_Structure.c\000"
 637      72617465 
 637      645F536F 
 637      75726365 
 637      5C50536F 
 638              		.bss
 639              		.align	2
 640              		.type	CapSense_1_noiseEnvlpHitSensor, %object
 641              		.size	CapSense_1_noiseEnvlpHitSensor, 12
 642              	CapSense_1_noiseEnvlpHitSensor:
 643 0000 00000000 		.space	12
 643      00000000 
 643      00000000 
 644              		.type	CapSense_1_debounceHitSensor, %object
 645              		.size	CapSense_1_debounceHitSensor, 1
 646              	CapSense_1_debounceHitSensor:
 647 000c 00       		.space	1
 648              		.text
 649              	.Letext0:
 650              		.file 2 "c:\\program files (x86)\\cypress\\psoc creator\\4.4\\psoc creator\\import\\gnu\\arm\\5.4.
 651              		.file 3 "c:\\program files (x86)\\cypress\\psoc creator\\4.4\\psoc creator\\import\\gnu\\arm\\5.4.
 652              		.file 4 "Generated_Source\\PSoC6\\pdl\\devices/psoc6/include/ip/cyip_gpio.h"
 653              		.file 5 "Generated_Source\\PSoC6\\pdl\\devices/psoc6/include/psoc6_01_config.h"
ARM GAS  C:\Users\Bryce\AppData\Local\Temp\ccLuOGF3.s 			page 29


 654              		.file 6 "Generated_Source\\PSoC6\\pdl\\drivers/peripheral/syslib/cy_syslib.h"
 655              		.file 7 "Generated_Source\\PSoC6\\CapSense_1_Configuration.h"
 656              		.file 8 "Generated_Source\\PSoC6\\CapSense_1_SmartSense_LL.h"
 657              		.file 9 "Generated_Source\\PSoC6\\CapSense_1_Structure.h"
 658              		.file 10 "Generated_Source\\PSoC6\\pdl\\cmsis/include/core_cm4.h"